	.file	"Arduino-usbserial.c"
__SP_H__ = 0x3e
__SP_L__ = 0x3d
__SREG__ = 0x3f
__tmp_reg__ = 0
__zero_reg__ = 1
	.text
.Ltext0:
	.cfi_sections	.debug_frame
	.section	.text.RingBuffer_Insert,"ax",@progbits
	.type	RingBuffer_Insert, @function
RingBuffer_Insert:
.LFB71:
	.file 1 "Lib/LightweightRingBuff.h"
	.loc 1 160 0
	.cfi_startproc
.LVL0:
/* prologue: function */
/* frame size = 0 */
/* stack size = 0 */
.L__stack_usage = 0
	.loc 1 161 0
	movw r30,r24
	subi r30,-128
	sbci r31,-1
	ld r26,Z
	ldd r27,Z+1
	st X,r22
	.loc 1 163 0
	ld r26,Z
	ldd r27,Z+1
	movw r18,r26
	subi r18,-1
	sbci r19,-1
	std Z+1,r19
	st Z,r18
	cp r18,r30
	cpc r19,r31
	brne .L2
	.loc 1 164 0
	adiw r26,1+1
	st X,r25
	st -X,r24
	sbiw r26,1
.L2:
.LBB31:
	.loc 1 166 0
	in r18,__SREG__
.LVL1:
.LBB32:
.LBB33:
	.file 2 "/usr/lib/avr/include/util/atomic.h"
	.loc 2 50 0
/* #APP */
 ;  50 "/usr/lib/avr/include/util/atomic.h" 1
	cli
 ;  0 "" 2
.LVL2:
/* #NOAPP */
.LBE33:
.LBE32:
	.loc 1 168 0
	movw r30,r24
	subi r30,124
	sbci r31,-1
	ld r24,Z
.LVL3:
	subi r24,lo8(-(1))
	st Z,r24
.LVL4:
.LBB34:
.LBB35:
	.loc 2 70 0
	out __SREG__,r18
	.loc 2 71 0
	ret
.LBE35:
.LBE34:
.LBE31:
	.cfi_endproc
.LFE71:
	.size	RingBuffer_Insert, .-RingBuffer_Insert
	.section	.text.RingBuffer_Remove,"ax",@progbits
	.type	RingBuffer_Remove, @function
RingBuffer_Remove:
.LFB72:
	.loc 1 183 0
	.cfi_startproc
.LVL5:
/* prologue: function */
/* frame size = 0 */
/* stack size = 0 */
.L__stack_usage = 0
	.loc 1 184 0
	movw r26,r24
	subi r26,126
	sbci r27,-1
	ld r30,X+
	ld r31,X
	sbiw r26,1
	ld r20,Z+
.LVL6:
	.loc 1 186 0
	adiw r26,1
	st X,r31
	st -X,r30
	movw r18,r24
	subi r18,-128
	sbci r19,-1
	cp r30,r18
	cpc r31,r19
	brne .L5
	.loc 1 187 0
	st X+,r24
	st X,r25
.L5:
.LBB36:
	.loc 1 189 0
	in r18,__SREG__
.LVL7:
.LBB37:
.LBB38:
	.loc 2 50 0
/* #APP */
 ;  50 "/usr/lib/avr/include/util/atomic.h" 1
	cli
 ;  0 "" 2
.LVL8:
/* #NOAPP */
.LBE38:
.LBE37:
	.loc 1 191 0
	movw r30,r24
	subi r30,124
	sbci r31,-1
	ld r25,Z
	subi r25,lo8(-(-1))
	st Z,r25
.LVL9:
.LBB39:
.LBB40:
	.loc 2 70 0
	out __SREG__,r18
	.loc 2 71 0
.LBE40:
.LBE39:
.LBE36:
	.loc 1 195 0
	mov r24,r20
.LVL10:
	ret
	.cfi_endproc
.LFE72:
	.size	RingBuffer_Remove, .-RingBuffer_Remove
	.section	.text.Serial_Init.constprop.2,"ax",@progbits
	.type	Serial_Init.constprop.2, @function
Serial_Init.constprop.2:
.LFB98:
	.file 3 "../../LUFA/Drivers/Peripheral/Serial.h"
	.loc 3 99 0
	.cfi_startproc
/* prologue: function */
/* frame size = 0 */
/* stack size = 0 */
.L__stack_usage = 0
.LVL11:
	.loc 3 102 0
	ldi r24,lo8(103)
	ldi r25,0
	sts 204+1,r25
	sts 204,r24
	.loc 3 104 0
	ldi r24,lo8(6)
	sts 202,r24
	.loc 3 105 0
	sts 200,__zero_reg__
	.loc 3 106 0
	ldi r24,lo8(24)
	sts 201,r24
	.loc 3 108 0
	sbi 0xa,3
	.loc 3 109 0
	sbi 0xb,2
	ret
	.cfi_endproc
.LFE98:
	.size	Serial_Init.constprop.2, .-Serial_Init.constprop.2
	.section	.text.setResetPin,"ax",@progbits
.global	setResetPin
	.type	setResetPin, @function
setResetPin:
.LFB85:
	.file 4 "Arduino-usbserial.c"
	.loc 4 195 0
	.cfi_startproc
.LVL12:
/* prologue: function */
/* frame size = 0 */
/* stack size = 0 */
.L__stack_usage = 0
	.loc 4 199 0
	tst r24
	breq .L8
	.loc 4 203 0
	sbi 0x7,7
	rjmp .L10
.L8:
	.loc 4 213 0
	cbi 0x7,7
.L10:
	.loc 4 215 0
	cbi 0x8,7
	ret
	.cfi_endproc
.LFE85:
	.size	setResetPin, .-setResetPin
	.section	.text.setErasePin,"ax",@progbits
.global	setErasePin
	.type	setErasePin, @function
setErasePin:
.LFB86:
	.loc 4 225 0
	.cfi_startproc
.LVL13:
/* prologue: function */
/* frame size = 0 */
/* stack size = 0 */
.L__stack_usage = 0
	.loc 4 227 0
	tst r24
	breq .L12
	.loc 4 229 0
	cbi 0x8,6
	ret
.L12:
	.loc 4 235 0
	sbi 0x8,6
	ret
	.cfi_endproc
.LFE86:
	.size	setErasePin, .-setErasePin
	.section	.text.SetupHardware,"ax",@progbits
.global	SetupHardware
	.type	SetupHardware, @function
SetupHardware:
.LFB88:
	.loc 4 475 0
	.cfi_startproc
/* prologue: function */
/* frame size = 0 */
/* stack size = 0 */
.L__stack_usage = 0
	.loc 4 479 0
	in r24,0x34
	andi r24,lo8(-9)
	out 0x34,r24
	.loc 4 481 0
	ldi r24,lo8(24)
/* #APP */
 ;  481 "Arduino-usbserial.c" 1
	in __tmp_reg__, __SREG__
	cli
	sts 96, r24
	sts 96, __zero_reg__
	out __SREG__,__tmp_reg__
	
 ;  0 "" 2
	.loc 4 485 0
/* #NOAPP */
	ldi r24,0
	call setResetPin
.LVL14:
	.loc 4 491 0
	sbi 0x8,6
	.loc 4 493 0
	sbi 0x7,6
	.loc 4 499 0
	call Serial_Init.constprop.2
.LVL15:
.LBB43:
.LBB44:
	.file 5 "./Board/LEDs.h"
	.loc 5 69 0
	in r24,0xa
	ori r24,lo8(48)
	out 0xa,r24
	.loc 5 70 0
	in r24,0xb
	ori r24,lo8(48)
	out 0xb,r24
.LBE44:
.LBE43:
	.loc 4 503 0
	call USB_Init
.LVL16:
	.loc 4 509 0
	ldi r24,lo8(4)
	out 0x25,r24
	ret
	.cfi_endproc
.LFE88:
	.size	SetupHardware, .-SetupHardware
	.section	.text.startup.main,"ax",@progbits
.global	main
	.type	main, @function
main:
.LFB87:
	.loc 4 255 0
	.cfi_startproc
/* prologue: function */
/* frame size = 0 */
/* stack size = 0 */
.L__stack_usage = 0
	.loc 4 257 0
	call SetupHardware
.LVL17:
.LBB98:
.LBB99:
	.loc 1 87 0
	in r18,__SREG__
.LVL18:
.LBB100:
.LBB101:
	.loc 2 50 0
/* #APP */
 ;  50 "/usr/lib/avr/include/util/atomic.h" 1
	cli
 ;  0 "" 2
.LVL19:
/* #NOAPP */
.LBE101:
.LBE100:
	.loc 1 89 0
	ldi r24,lo8(USBtoUSART_Buffer)
	ldi r25,hi8(USBtoUSART_Buffer)
	sts USBtoUSART_Buffer+128+1,r25
	sts USBtoUSART_Buffer+128,r24
	.loc 1 90 0
	sts USBtoUSART_Buffer+130+1,r25
	sts USBtoUSART_Buffer+130,r24
.LVL20:
.LBB102:
.LBB103:
	.loc 2 70 0
	out __SREG__,r18
	.loc 2 71 0
.LVL21:
.LBE103:
.LBE102:
.LBE99:
.LBE98:
.LBB104:
.LBB105:
	.loc 1 87 0
	in r18,__SREG__
.LVL22:
.LBB106:
.LBB107:
	.loc 2 50 0
/* #APP */
 ;  50 "/usr/lib/avr/include/util/atomic.h" 1
	cli
 ;  0 "" 2
.LVL23:
/* #NOAPP */
.LBE107:
.LBE106:
	.loc 1 89 0
	ldi r24,lo8(USARTtoUSB_Buffer)
	ldi r25,hi8(USARTtoUSB_Buffer)
	sts USARTtoUSB_Buffer+128+1,r25
	sts USARTtoUSB_Buffer+128,r24
	.loc 1 90 0
	sts USARTtoUSB_Buffer+130+1,r25
	sts USARTtoUSB_Buffer+130,r24
.LVL24:
.LBB108:
.LBB109:
	.loc 2 70 0
	out __SREG__,r18
.LVL25:
	.loc 2 71 0
.LBE109:
.LBE108:
.LBE105:
.LBE104:
	.loc 4 267 0
/* #APP */
 ;  267 "Arduino-usbserial.c" 1
	sei
 ;  0 "" 2
	.loc 4 271 0
/* #NOAPP */
	cbi 0x4,6
	.loc 4 273 0
	sbi 0x5,6
	.loc 4 275 0
	cbi 0x4,7
	.loc 4 277 0
	sbi 0x5,7
	.loc 4 279 0
	sbi 0x4,4
	.loc 4 281 0
	cbi 0x5,4
	.loc 4 283 0
	cbi 0x4,5
	.loc 4 285 0
	sbi 0x5,5
.LBB110:
	.loc 4 367 0
	ldi r29,lo8(3)
.LVL26:
.L49:
	.loc 4 295 0
	sbic 0x3,5
	rjmp .L16
	.loc 4 299 0
/* #APP */
 ;  299 "Arduino-usbserial.c" 1
	cli
 ;  0 "" 2
/* #NOAPP */
.LBB111:
.LBB112:
	.loc 3 115 0
	sts 201,__zero_reg__
	.loc 3 116 0
	sts 200,__zero_reg__
	.loc 3 117 0
	sts 202,__zero_reg__
	.loc 3 119 0
	sts 204+1,__zero_reg__
	sts 204,__zero_reg__
	.loc 3 121 0
	cbi 0xa,3
	.loc 3 122 0
	cbi 0xb,2
.LBE112:
.LBE111:
	.loc 4 303 0
	sbi 0xa,3
	.loc 4 305 0
	sbis 0x3,5
	rjmp .L17
	.loc 4 305 0 is_stmt 0 discriminator 1
	in r24,0xb
	ori r24,lo8(32)
	rjmp .L18
.L17:
	.loc 4 305 0 discriminator 2
	in r24,0xb
	andi r24,lo8(-33)
.L18:
	.loc 4 305 0 discriminator 3
	out 0xb,r24
	.loc 4 307 0 is_stmt 1 discriminator 3
	sbi 0x5,4
.L19:
	.loc 4 309 0 discriminator 1
	sbic 0x3,5
	rjmp .L58
	.loc 4 313 0
	in r24,0x3
	com r24
	rol r24
	clr r24
	rol r24
	call setErasePin
.LVL27:
	.loc 4 315 0
	sbis 0x3,6
	rjmp .L20
	.loc 4 315 0 is_stmt 0 discriminator 1
	in r24,0xb
	ori r24,lo8(8)
	rjmp .L21
.L20:
	.loc 4 315 0 discriminator 2
	in r24,0xb
	andi r24,lo8(-9)
.L21:
	.loc 4 315 0 discriminator 3
	out 0xb,r24
	.loc 4 317 0 is_stmt 1 discriminator 3
	sbis 0x3,6
	rjmp .L22
	.loc 4 317 0 is_stmt 0 discriminator 1
	in r24,0xb
	ori r24,lo8(16)
	rjmp .L23
.L22:
	.loc 4 317 0 discriminator 2
	in r24,0xb
	andi r24,lo8(-17)
.L23:
	.loc 4 317 0 discriminator 3
	out 0xb,r24
	rjmp .L19
.L58:
	.loc 4 321 0 is_stmt 1
	cbi 0x5,4
	.loc 4 323 0
	sbis 0x3,5
	rjmp .L25
	.loc 4 323 0 is_stmt 0 discriminator 1
	in r24,0xb
	ori r24,lo8(32)
	rjmp .L26
.L25:
	.loc 4 323 0 discriminator 2
	in r24,0xb
	andi r24,lo8(-33)
.L26:
	.loc 4 323 0 discriminator 3
	out 0xb,r24
	.loc 4 325 0 is_stmt 1 discriminator 3
	call Serial_Init.constprop.2
.LVL28:
	.loc 4 327 0 discriminator 3
/* #APP */
 ;  327 "Arduino-usbserial.c" 1
	sei
 ;  0 "" 2
/* #NOAPP */
.L16:
.LVL29:
.LBB113:
.LBB114:
.LBB115:
.LBB116:
	.loc 1 111 0
	in r25,__SREG__
.LVL30:
.LBB117:
.LBB118:
	.loc 2 50 0
/* #APP */
 ;  50 "/usr/lib/avr/include/util/atomic.h" 1
	cli
 ;  0 "" 2
.LVL31:
/* #NOAPP */
.LBE118:
.LBE117:
	.loc 1 113 0
	lds r24,USBtoUSART_Buffer+132
.LVL32:
.LBB119:
.LBB120:
	.loc 2 70 0
	out __SREG__,r25
	.loc 2 71 0
.LBE120:
.LBE119:
.LBE116:
.LBE115:
.LBE114:
.LBE113:
	.loc 4 333 0
	cpi r24,lo8(-128)
	breq .L28
.LBB121:
	.loc 4 337 0
	ldi r24,lo8(VirtualSerial_CDC_Interface)
	ldi r25,hi8(VirtualSerial_CDC_Interface)
.LVL33:
	call CDC_Device_ReceiveByte
.LVL34:
	.loc 4 343 0
	sbrc r25,7
	rjmp .L28
	.loc 4 345 0
	mov r22,r24
	ldi r24,lo8(USBtoUSART_Buffer)
	ldi r25,hi8(USBtoUSART_Buffer)
.LVL35:
	call RingBuffer_Insert
.LVL36:
.L28:
.LBE121:
.LBB122:
.LBB123:
.LBB124:
	.loc 1 111 0
	in r24,__SREG__
.LVL37:
.LBB125:
.LBB126:
	.loc 2 50 0
/* #APP */
 ;  50 "/usr/lib/avr/include/util/atomic.h" 1
	cli
 ;  0 "" 2
.LVL38:
/* #NOAPP */
.LBE126:
.LBE125:
	.loc 1 113 0
	lds r28,USARTtoUSB_Buffer+132
.LVL39:
.LBB127:
.LBB128:
	.loc 2 70 0
	out __SREG__,r24
	.loc 2 71 0
.LBE128:
.LBE127:
.LBE124:
.LBE123:
.LBE122:
	.loc 4 355 0
	sbic 0x15,0
	rjmp .L30
	.loc 4 355 0 is_stmt 0 discriminator 1
	cpi r28,lo8(97)
	brsh .+2
	rjmp .L31
.L30:
	.loc 4 359 0 is_stmt 1
	sbi 0x15,0
	.loc 4 363 0
	lds r24,USARTtoUSB_Buffer+132
.LVL40:
	tst r24
	breq .L33
.LVL41:
.LBB129:
.LBB130:
	.loc 5 75 0
	cbi 0xb,5
.LBE130:
.LBE129:
	.loc 4 367 0
	sts PulseMSRemaining,r29
.LVL42:
.L33:
	.loc 4 375 0 discriminator 1
	tst r28
	breq .L59
	.loc 4 377 0
	ldi r24,lo8(USARTtoUSB_Buffer)
	ldi r25,hi8(USARTtoUSB_Buffer)
	call RingBuffer_Remove
.LVL43:
	mov r22,r24
	ldi r24,lo8(VirtualSerial_CDC_Interface)
	ldi r25,hi8(VirtualSerial_CDC_Interface)
	call CDC_Device_SendByte
.LVL44:
	subi r28,lo8(-(-1))
.LVL45:
	rjmp .L33
.LVL46:
.L59:
	.loc 4 383 0
	lds r24,PulseMSRemaining
	tst r24
	breq .L36
	.loc 4 383 0 is_stmt 0 discriminator 1
	lds r24,PulseMSRemaining
	subi r24,lo8(-(-1))
	sts PulseMSRemaining,r24
	cpse r24,__zero_reg__
	rjmp .L36
.LVL47:
.LBB131:
.LBB132:
	.loc 5 80 0 is_stmt 1
	sbi 0xb,5
.LVL48:
.L36:
.LBE132:
.LBE131:
	.loc 4 391 0
	lds r24,PulseMSRemaining+1
	tst r24
	breq .L39
	.loc 4 391 0 is_stmt 0 discriminator 1
	lds r24,PulseMSRemaining+1
	subi r24,lo8(-(-1))
	sts PulseMSRemaining+1,r24
	cpse r24,__zero_reg__
	rjmp .L39
.LVL49:
.LBB133:
.LBB134:
	.loc 5 80 0 is_stmt 1
	sbi 0xb,4
.LVL50:
.L39:
.LBE134:
.LBE133:
	.loc 4 397 0
	lds r24,ResetTimer
	lds r25,ResetTimer+1
	cp __zero_reg__,r24
	cpc __zero_reg__,r25
	brge .L41
	.loc 4 407 0
	sbiw r24,60
	sbiw r24,61
	brsh .L42
	.loc 4 409 0
	ldi r24,lo8(1)
	rjmp .L56
.L42:
	.loc 4 413 0
	ldi r24,0
.L56:
	call setErasePin
.LVL51:
	.loc 4 421 0
	lds r24,ResetTimer
	lds r25,ResetTimer+1
	sbiw r24,1
	sbiw r24,50
	brsh .L44
	.loc 4 423 0
	ldi r24,lo8(1)
	rjmp .L57
.L44:
	.loc 4 427 0
	ldi r24,0
.L57:
	call setResetPin
.LVL52:
	.loc 4 431 0
	lds r24,ResetTimer
	lds r25,ResetTimer+1
	sbiw r24,1
	sts ResetTimer+1,r25
	sts ResetTimer,r24
	rjmp .L31
.L41:
	.loc 4 435 0
	ldi r24,0
	call setErasePin
.LVL53:
	.loc 4 437 0
	ldi r24,0
	call setResetPin
.LVL54:
.L31:
.LBB135:
.LBB136:
.LBB137:
.LBB138:
	.loc 1 111 0
	in r25,__SREG__
.LVL55:
.LBB139:
.LBB140:
	.loc 2 50 0
/* #APP */
 ;  50 "/usr/lib/avr/include/util/atomic.h" 1
	cli
 ;  0 "" 2
.LVL56:
/* #NOAPP */
.LBE140:
.LBE139:
	.loc 1 113 0
	lds r24,USBtoUSART_Buffer+132
.LVL57:
.LBB141:
.LBB142:
	.loc 2 70 0
	out __SREG__,r25
	.loc 2 71 0
.LBE142:
.LBE141:
.LBE138:
.LBE137:
.LBE136:
.LBE135:
	.loc 4 447 0
	tst r24
	breq .L46
	.loc 4 449 0
	ldi r24,lo8(USBtoUSART_Buffer)
	ldi r25,hi8(USBtoUSART_Buffer)
.LVL58:
	call RingBuffer_Remove
.LVL59:
.L48:
.LBB143:
.LBB144:
	.loc 3 142 0
	lds r25,200
	sbrs r25,5
	rjmp .L48
	.loc 3 143 0
	sts 206,r24
.LVL60:
.LBE144:
.LBE143:
.LBB145:
.LBB146:
	.loc 5 75 0
	cbi 0xb,4
.LBE146:
.LBE145:
	.loc 4 453 0
	sts PulseMSRemaining+1,r29
.LVL61:
.L46:
	.loc 4 459 0
	ldi r24,lo8(VirtualSerial_CDC_Interface)
	ldi r25,hi8(VirtualSerial_CDC_Interface)
	call CDC_Device_USBTask
.LVL62:
	.loc 4 461 0
	call USB_USBTask
.LVL63:
.LBE110:
	.loc 4 463 0
	rjmp .L49
	.cfi_endproc
.LFE87:
	.size	main, .-main
	.section	.text.EVENT_USB_Device_ConfigurationChanged,"ax",@progbits
.global	EVENT_USB_Device_ConfigurationChanged
	.type	EVENT_USB_Device_ConfigurationChanged, @function
EVENT_USB_Device_ConfigurationChanged:
.LFB89:
	.loc 4 519 0
	.cfi_startproc
/* prologue: function */
/* frame size = 0 */
/* stack size = 0 */
.L__stack_usage = 0
	.loc 4 521 0
	ldi r24,lo8(VirtualSerial_CDC_Interface)
	ldi r25,hi8(VirtualSerial_CDC_Interface)
	jmp CDC_Device_ConfigureEndpoints
.LVL64:
	.cfi_endproc
.LFE89:
	.size	EVENT_USB_Device_ConfigurationChanged, .-EVENT_USB_Device_ConfigurationChanged
	.section	.text.EVENT_USB_Device_UnhandledControlRequest,"ax",@progbits
.global	EVENT_USB_Device_UnhandledControlRequest
	.type	EVENT_USB_Device_UnhandledControlRequest, @function
EVENT_USB_Device_UnhandledControlRequest:
.LFB90:
	.loc 4 531 0
	.cfi_startproc
/* prologue: function */
/* frame size = 0 */
/* stack size = 0 */
.L__stack_usage = 0
	.loc 4 533 0
	ldi r24,lo8(VirtualSerial_CDC_Interface)
	ldi r25,hi8(VirtualSerial_CDC_Interface)
	jmp CDC_Device_ProcessControlRequest
.LVL65:
	.cfi_endproc
.LFE90:
	.size	EVENT_USB_Device_UnhandledControlRequest, .-EVENT_USB_Device_UnhandledControlRequest
	.section	.text.EVENT_CDC_Device_LineEncodingChanged,"ax",@progbits
.global	EVENT_CDC_Device_LineEncodingChanged
	.type	EVENT_CDC_Device_LineEncodingChanged, @function
EVENT_CDC_Device_LineEncodingChanged:
.LFB91:
	.loc 4 549 0
	.cfi_startproc
.LVL66:
	push r12
.LCFI0:
	.cfi_def_cfa_offset 3
	.cfi_offset 12, -2
	push r13
.LCFI1:
	.cfi_def_cfa_offset 4
	.cfi_offset 13, -3
	push r14
.LCFI2:
	.cfi_def_cfa_offset 5
	.cfi_offset 14, -4
	push r15
.LCFI3:
	.cfi_def_cfa_offset 6
	.cfi_offset 15, -5
	push r28
.LCFI4:
	.cfi_def_cfa_offset 7
	.cfi_offset 28, -6
/* prologue: function */
/* frame size = 0 */
/* stack size = 5 */
.L__stack_usage = 5
	movw r30,r24
.LVL67:
	.loc 4 555 0
	ldd r24,Z+20
.LVL68:
	cpi r24,lo8(1)
	breq .L72
	cpi r24,lo8(2)
	breq .L65
	.loc 4 551 0
	ldi r28,0
	rjmp .L64
.L65:
.LVL69:
	.loc 4 567 0
	ldi r28,lo8(32)
	.loc 4 569 0
	rjmp .L64
.LVL70:
.L72:
	.loc 4 561 0
	ldi r28,lo8(48)
.LVL71:
.L64:
	.loc 4 575 0
	ldd r24,Z+19
	cpi r24,lo8(2)
	brne .L66
	.loc 4 577 0
	ori r28,lo8(8)
.LVL72:
.L66:
	.loc 4 581 0
	ldd r24,Z+21
	cpi r24,lo8(7)
	breq .L68
	cpi r24,lo8(8)
	breq .L69
	cpi r24,lo8(6)
	brne .L67
	.loc 4 587 0
	ori r28,lo8(2)
.LVL73:
	.loc 4 589 0
	rjmp .L67
.L68:
	.loc 4 593 0
	ori r28,lo8(4)
.LVL74:
	.loc 4 595 0
	rjmp .L67
.L69:
	.loc 4 599 0
	ori r28,lo8(6)
.LVL75:
.L67:
	.loc 4 609 0
	sts 201,__zero_reg__
	.loc 4 611 0
	sts 200,__zero_reg__
	.loc 4 613 0
	sts 202,__zero_reg__
	.loc 4 617 0
	ldd r12,Z+15
	ldd r13,Z+16
	ldd r14,Z+17
	ldd r15,Z+18
.LVL76:
	.loc 4 619 0
	ldi r24,lo8(1)
	ldi r25,-80
	cp r12,r25
	ldi r25,4
	cpc r13,r25
	cpc r14,__zero_reg__
	cpc r15,__zero_reg__
	breq .L71
	ldi r24,0
.L71:
	sts Selected1200BPS,r24
	.loc 4 623 0
	movw r24,r14
	movw r22,r12
	ldi r18,lo8(2)
	ldi r19,0
	ldi r20,0
	ldi r21,0
	call __divmodsi4
.LVL77:
	subi r18,-128
	sbci r19,123
	sbci r20,-31
	sbci r21,-1
	movw r24,r20
	movw r22,r18
	movw r20,r14
	movw r18,r12
	call __udivmodsi4
	subi r18,1
	sbc r19,__zero_reg__
	sts 204+1,r19
	sts 204,r18
	.loc 4 625 0
	sts 202,r28
	.loc 4 627 0
	ldi r24,lo8(2)
	sts 200,r24
	.loc 4 629 0
	ldi r24,lo8(-104)
	sts 201,r24
/* epilogue start */
	.loc 4 631 0
	pop r28
.LVL78:
	pop r15
	pop r14
	pop r13
	pop r12
.LVL79:
	ret
	.cfi_endproc
.LFE91:
	.size	EVENT_CDC_Device_LineEncodingChanged, .-EVENT_CDC_Device_LineEncodingChanged
	.section	.text.__vector_23,"ax",@progbits
.global	__vector_23
	.type	__vector_23, @function
__vector_23:
.LFB92:
	.loc 4 643 0
	.cfi_startproc
	push r1
.LCFI5:
	.cfi_def_cfa_offset 3
	.cfi_offset 1, -2
	push r0
.LCFI6:
	.cfi_def_cfa_offset 4
	.cfi_offset 0, -3
	in r0,__SREG__
	push r0
	clr __zero_reg__
	push r18
.LCFI7:
	.cfi_def_cfa_offset 5
	.cfi_offset 18, -4
	push r19
.LCFI8:
	.cfi_def_cfa_offset 6
	.cfi_offset 19, -5
	push r20
.LCFI9:
	.cfi_def_cfa_offset 7
	.cfi_offset 20, -6
	push r21
.LCFI10:
	.cfi_def_cfa_offset 8
	.cfi_offset 21, -7
	push r22
.LCFI11:
	.cfi_def_cfa_offset 9
	.cfi_offset 22, -8
	push r23
.LCFI12:
	.cfi_def_cfa_offset 10
	.cfi_offset 23, -9
	push r24
.LCFI13:
	.cfi_def_cfa_offset 11
	.cfi_offset 24, -10
	push r25
.LCFI14:
	.cfi_def_cfa_offset 12
	.cfi_offset 25, -11
	push r26
.LCFI15:
	.cfi_def_cfa_offset 13
	.cfi_offset 26, -12
	push r27
.LCFI16:
	.cfi_def_cfa_offset 14
	.cfi_offset 27, -13
	push r30
.LCFI17:
	.cfi_def_cfa_offset 15
	.cfi_offset 30, -14
	push r31
.LCFI18:
	.cfi_def_cfa_offset 16
	.cfi_offset 31, -15
/* prologue: Signal */
/* frame size = 0 */
/* stack size = 15 */
.L__stack_usage = 15
	.loc 4 645 0
	lds r22,206
.LVL80:
	.loc 4 649 0
	in r24,0x1e
	cpi r24,lo8(4)
	brne .L76
	.loc 4 651 0
	ldi r24,lo8(USARTtoUSB_Buffer)
	ldi r25,hi8(USARTtoUSB_Buffer)
	call RingBuffer_Insert
.LVL81:
.L76:
/* epilogue start */
	.loc 4 653 0
	pop r31
	pop r30
	pop r27
	pop r26
	pop r25
	pop r24
	pop r23
	pop r22
	pop r21
	pop r20
	pop r19
	pop r18
	pop r0
	out __SREG__,r0
	pop r0
	pop r1
	reti
	.cfi_endproc
.LFE92:
	.size	__vector_23, .-__vector_23
	.section	.text.EVENT_CDC_Device_ControLineStateChanged,"ax",@progbits
.global	EVENT_CDC_Device_ControLineStateChanged
	.type	EVENT_CDC_Device_ControLineStateChanged, @function
EVENT_CDC_Device_ControLineStateChanged:
.LFB93:
	.loc 4 667 0
	.cfi_startproc
.LVL82:
/* prologue: function */
/* frame size = 0 */
/* stack size = 0 */
.L__stack_usage = 0
	.loc 4 669 0
	lds r18,CurrentDTRState
	sts PreviousDTRState,r18
	.loc 4 671 0
	lds r19,CurrentRTSState
	sts PreviousRTSState,r19
	.loc 4 673 0
	movw r30,r24
	ldd r25,Z+13
	mov r24,r25
.LVL83:
	andi r24,lo8(1)
	sts CurrentDTRState,r24
	.loc 4 675 0
	lsr r25
	andi r25,1
	sts CurrentRTSState,r25
	.loc 4 679 0
	lds r25,Selected1200BPS
	tst r25
	breq .L79
	.loc 4 683 0
	ldi r24,lo8(120)
	ldi r25,0
	rjmp .L84
.L79:
	.loc 4 685 0
	cpse r18,__zero_reg__
	rjmp .L78
	.loc 4 685 0 is_stmt 0 discriminator 1
	tst r24
	breq .L78
	.loc 4 689 0 is_stmt 1
	ldi r24,lo8(50)
	ldi r25,0
.L84:
	sts ResetTimer+1,r25
	sts ResetTimer,r24
.L78:
	ret
	.cfi_endproc
.LFE93:
	.size	EVENT_CDC_Device_ControLineStateChanged, .-EVENT_CDC_Device_ControLineStateChanged
.global	Selected1200BPS
	.section .bss
	.type	Selected1200BPS, @object
	.size	Selected1200BPS, 1
Selected1200BPS:
	.zero	1
.global	PreviousRTSState
	.type	PreviousRTSState, @object
	.size	PreviousRTSState, 1
PreviousRTSState:
	.zero	1
.global	CurrentRTSState
	.type	CurrentRTSState, @object
	.size	CurrentRTSState, 1
CurrentRTSState:
	.zero	1
.global	PreviousDTRState
	.type	PreviousDTRState, @object
	.size	PreviousDTRState, 1
PreviousDTRState:
	.zero	1
.global	CurrentDTRState
	.type	CurrentDTRState, @object
	.size	CurrentDTRState, 1
CurrentDTRState:
	.zero	1
.global	tries
	.data
	.type	tries, @object
	.size	tries, 2
tries:
	.word	20
.global	ResetTimer
	.section .bss
	.type	ResetTimer, @object
	.size	ResetTimer, 2
ResetTimer:
	.zero	2
.global	VirtualSerial_CDC_Interface
	.data
	.type	VirtualSerial_CDC_Interface, @object
	.size	VirtualSerial_CDC_Interface, 22
VirtualSerial_CDC_Interface:
	.byte	0
	.byte	3
	.word	64
	.byte	0
	.byte	4
	.word	64
	.byte	0
	.byte	2
	.word	8
	.byte	0
	.zero	9
	.comm	PulseMSRemaining,3,1
	.comm	USARTtoUSB_Buffer,133,1
	.comm	USBtoUSART_Buffer,133,1
.global	tmp_erase_cmd_last
	.section .bss
	.type	tmp_erase_cmd_last, @object
	.size	tmp_erase_cmd_last, 1
tmp_erase_cmd_last:
	.zero	1
.global	tmp_erase_cmd
	.type	tmp_erase_cmd, @object
	.size	tmp_erase_cmd, 1
tmp_erase_cmd:
	.zero	1
.global	ex_resettime
	.type	ex_resettime, @object
	.size	ex_resettime, 1
ex_resettime:
	.zero	1
	.text
.Letext0:
	.file 6 "/usr/lib/avr/include/stdint.h"
	.file 7 "../../LUFA/Drivers/USB/HighLevel/../LowLevel/Device.h"
	.file 8 "../../LUFA/Drivers/USB/Class/Device/../Common/CDC.h"
	.file 9 "../../LUFA/Drivers/USB/Class/Device/CDC.h"
	.file 10 "../../LUFA/Drivers/USB/HighLevel/../LowLevel/USBController.h"
	.file 11 "../../LUFA/Drivers/USB/HighLevel/USBTask.h"