   1               		.file	"Endpoint.c"
   2               	__SP_H__ = 0x3e
   3               	__SP_L__ = 0x3d
   4               	__SREG__ = 0x3f
   5               	__tmp_reg__ = 0
   6               	__zero_reg__ = 1
   7               		.text
   8               	.Ltext0:
   9               		.cfi_sections	.debug_frame
  10               		.section	.text.Endpoint_BytesToEPSizeMaskDynamic,"ax",@progbits
  11               	.global	Endpoint_BytesToEPSizeMaskDynamic
  13               	Endpoint_BytesToEPSizeMaskDynamic:
  14               	.LFB64:
  15               		.file 1 "../../LUFA/Drivers/USB/LowLevel/Endpoint.c"
   1:../../LUFA/Drivers/USB/LowLevel/Endpoint.c **** /*
   2:../../LUFA/Drivers/USB/LowLevel/Endpoint.c ****              LUFA Library
   3:../../LUFA/Drivers/USB/LowLevel/Endpoint.c ****      Copyright (C) Dean Camera, 2010.
   4:../../LUFA/Drivers/USB/LowLevel/Endpoint.c ****               
   5:../../LUFA/Drivers/USB/LowLevel/Endpoint.c ****   dean [at] fourwalledcubicle [dot] com
   6:../../LUFA/Drivers/USB/LowLevel/Endpoint.c ****       www.fourwalledcubicle.com
   7:../../LUFA/Drivers/USB/LowLevel/Endpoint.c **** */
   8:../../LUFA/Drivers/USB/LowLevel/Endpoint.c **** 
   9:../../LUFA/Drivers/USB/LowLevel/Endpoint.c **** /*
  10:../../LUFA/Drivers/USB/LowLevel/Endpoint.c ****   Copyright 2010  Dean Camera (dean [at] fourwalledcubicle [dot] com)
  11:../../LUFA/Drivers/USB/LowLevel/Endpoint.c **** 
  12:../../LUFA/Drivers/USB/LowLevel/Endpoint.c ****   Permission to use, copy, modify, distribute, and sell this 
  13:../../LUFA/Drivers/USB/LowLevel/Endpoint.c ****   software and its documentation for any purpose is hereby granted
  14:../../LUFA/Drivers/USB/LowLevel/Endpoint.c ****   without fee, provided that the above copyright notice appear in 
  15:../../LUFA/Drivers/USB/LowLevel/Endpoint.c ****   all copies and that both that the copyright notice and this
  16:../../LUFA/Drivers/USB/LowLevel/Endpoint.c ****   permission notice and warranty disclaimer appear in supporting 
  17:../../LUFA/Drivers/USB/LowLevel/Endpoint.c ****   documentation, and that the name of the author not be used in 
  18:../../LUFA/Drivers/USB/LowLevel/Endpoint.c ****   advertising or publicity pertaining to distribution of the 
  19:../../LUFA/Drivers/USB/LowLevel/Endpoint.c ****   software without specific, written prior permission.
  20:../../LUFA/Drivers/USB/LowLevel/Endpoint.c **** 
  21:../../LUFA/Drivers/USB/LowLevel/Endpoint.c ****   The author disclaim all warranties with regard to this
  22:../../LUFA/Drivers/USB/LowLevel/Endpoint.c ****   software, including all implied warranties of merchantability
  23:../../LUFA/Drivers/USB/LowLevel/Endpoint.c ****   and fitness.  In no event shall the author be liable for any
  24:../../LUFA/Drivers/USB/LowLevel/Endpoint.c ****   special, indirect or consequential damages or any damages
  25:../../LUFA/Drivers/USB/LowLevel/Endpoint.c ****   whatsoever resulting from loss of use, data or profits, whether
  26:../../LUFA/Drivers/USB/LowLevel/Endpoint.c ****   in an action of contract, negligence or other tortious action,
  27:../../LUFA/Drivers/USB/LowLevel/Endpoint.c ****   arising out of or in connection with the use or performance of
  28:../../LUFA/Drivers/USB/LowLevel/Endpoint.c ****   this software.
  29:../../LUFA/Drivers/USB/LowLevel/Endpoint.c **** */
  30:../../LUFA/Drivers/USB/LowLevel/Endpoint.c **** 
  31:../../LUFA/Drivers/USB/LowLevel/Endpoint.c **** #define  __INCLUDE_FROM_USB_DRIVER
  32:../../LUFA/Drivers/USB/LowLevel/Endpoint.c **** #include "../HighLevel/USBMode.h"
  33:../../LUFA/Drivers/USB/LowLevel/Endpoint.c **** 
  34:../../LUFA/Drivers/USB/LowLevel/Endpoint.c **** #if defined(USB_CAN_BE_DEVICE)
  35:../../LUFA/Drivers/USB/LowLevel/Endpoint.c **** 
  36:../../LUFA/Drivers/USB/LowLevel/Endpoint.c **** #define  __INCLUDE_FROM_ENDPOINT_C
  37:../../LUFA/Drivers/USB/LowLevel/Endpoint.c **** #include "Endpoint.h"
  38:../../LUFA/Drivers/USB/LowLevel/Endpoint.c **** 
  39:../../LUFA/Drivers/USB/LowLevel/Endpoint.c **** #if !defined(FIXED_CONTROL_ENDPOINT_SIZE)
  40:../../LUFA/Drivers/USB/LowLevel/Endpoint.c **** uint8_t USB_ControlEndpointSize = ENDPOINT_CONTROLEP_DEFAULT_SIZE;
  41:../../LUFA/Drivers/USB/LowLevel/Endpoint.c **** #endif
  42:../../LUFA/Drivers/USB/LowLevel/Endpoint.c **** 
  43:../../LUFA/Drivers/USB/LowLevel/Endpoint.c **** uint8_t Endpoint_BytesToEPSizeMaskDynamic(const uint16_t Size)
  44:../../LUFA/Drivers/USB/LowLevel/Endpoint.c **** {
  16               		.loc 1 44 0
  17               		.cfi_startproc
  18               	.LVL0:
  19               	/* prologue: function */
  20               	/* frame size = 0 */
  21               	/* stack size = 0 */
  22               	.L__stack_usage = 0
  23               	.LBB259:
  24               	.LBB260:
  25               		.file 2 "../../LUFA/Drivers/USB/LowLevel/Endpoint.h"
   1:../../LUFA/Drivers/USB/LowLevel/Endpoint.h **** /*
   2:../../LUFA/Drivers/USB/LowLevel/Endpoint.h ****              LUFA Library
   3:../../LUFA/Drivers/USB/LowLevel/Endpoint.h ****      Copyright (C) Dean Camera, 2010.
   4:../../LUFA/Drivers/USB/LowLevel/Endpoint.h ****               
   5:../../LUFA/Drivers/USB/LowLevel/Endpoint.h ****   dean [at] fourwalledcubicle [dot] com
   6:../../LUFA/Drivers/USB/LowLevel/Endpoint.h ****       www.fourwalledcubicle.com
   7:../../LUFA/Drivers/USB/LowLevel/Endpoint.h **** */
   8:../../LUFA/Drivers/USB/LowLevel/Endpoint.h **** 
   9:../../LUFA/Drivers/USB/LowLevel/Endpoint.h **** /*
  10:../../LUFA/Drivers/USB/LowLevel/Endpoint.h ****   Copyright 2010  Dean Camera (dean [at] fourwalledcubicle [dot] com)
  11:../../LUFA/Drivers/USB/LowLevel/Endpoint.h **** 
  12:../../LUFA/Drivers/USB/LowLevel/Endpoint.h ****   Permission to use, copy, modify, distribute, and sell this 
  13:../../LUFA/Drivers/USB/LowLevel/Endpoint.h ****   software and its documentation for any purpose is hereby granted
  14:../../LUFA/Drivers/USB/LowLevel/Endpoint.h ****   without fee, provided that the above copyright notice appear in 
  15:../../LUFA/Drivers/USB/LowLevel/Endpoint.h ****   all copies and that both that the copyright notice and this
  16:../../LUFA/Drivers/USB/LowLevel/Endpoint.h ****   permission notice and warranty disclaimer appear in supporting 
  17:../../LUFA/Drivers/USB/LowLevel/Endpoint.h ****   documentation, and that the name of the author not be used in 
  18:../../LUFA/Drivers/USB/LowLevel/Endpoint.h ****   advertising or publicity pertaining to distribution of the 
  19:../../LUFA/Drivers/USB/LowLevel/Endpoint.h ****   software without specific, written prior permission.
  20:../../LUFA/Drivers/USB/LowLevel/Endpoint.h **** 
  21:../../LUFA/Drivers/USB/LowLevel/Endpoint.h ****   The author disclaim all warranties with regard to this
  22:../../LUFA/Drivers/USB/LowLevel/Endpoint.h ****   software, including all implied warranties of merchantability
  23:../../LUFA/Drivers/USB/LowLevel/Endpoint.h ****   and fitness.  In no event shall the author be liable for any
  24:../../LUFA/Drivers/USB/LowLevel/Endpoint.h ****   special, indirect or consequential damages or any damages
  25:../../LUFA/Drivers/USB/LowLevel/Endpoint.h ****   whatsoever resulting from loss of use, data or profits, whether
  26:../../LUFA/Drivers/USB/LowLevel/Endpoint.h ****   in an action of contract, negligence or other tortious action,
  27:../../LUFA/Drivers/USB/LowLevel/Endpoint.h ****   arising out of or in connection with the use or performance of
  28:../../LUFA/Drivers/USB/LowLevel/Endpoint.h ****   this software.
  29:../../LUFA/Drivers/USB/LowLevel/Endpoint.h **** */
  30:../../LUFA/Drivers/USB/LowLevel/Endpoint.h **** 
  31:../../LUFA/Drivers/USB/LowLevel/Endpoint.h **** /** \file
  32:../../LUFA/Drivers/USB/LowLevel/Endpoint.h ****  *  \brief USB device endpoint management definitions.
  33:../../LUFA/Drivers/USB/LowLevel/Endpoint.h ****  *
  34:../../LUFA/Drivers/USB/LowLevel/Endpoint.h ****  *  This file contains structures, function prototypes and macros related to the management of the 
  35:../../LUFA/Drivers/USB/LowLevel/Endpoint.h ****  *  data endpoints when the library is initialized in USB device mode.
  36:../../LUFA/Drivers/USB/LowLevel/Endpoint.h ****  *
  37:../../LUFA/Drivers/USB/LowLevel/Endpoint.h ****  *  \note This file should not be included directly. It is automatically included as needed by the 
  38:../../LUFA/Drivers/USB/LowLevel/Endpoint.h ****  *        dispatch header located in LUFA/Drivers/USB/USB.h.
  39:../../LUFA/Drivers/USB/LowLevel/Endpoint.h ****  */
  40:../../LUFA/Drivers/USB/LowLevel/Endpoint.h **** 
  41:../../LUFA/Drivers/USB/LowLevel/Endpoint.h **** /** \ingroup Group_USB
  42:../../LUFA/Drivers/USB/LowLevel/Endpoint.h ****  *  @defgroup Group_EndpointManagement Endpoint Management
  43:../../LUFA/Drivers/USB/LowLevel/Endpoint.h ****  *
  44:../../LUFA/Drivers/USB/LowLevel/Endpoint.h ****  *  Functions, macros and enums related to endpoint management when in USB Device mode. This
  45:../../LUFA/Drivers/USB/LowLevel/Endpoint.h ****  *  module contains the endpoint management macros, as well as endpoint interrupt and data
  46:../../LUFA/Drivers/USB/LowLevel/Endpoint.h ****  *  send/receive functions for various data types.
  47:../../LUFA/Drivers/USB/LowLevel/Endpoint.h ****  *
  48:../../LUFA/Drivers/USB/LowLevel/Endpoint.h ****  *  @{
  49:../../LUFA/Drivers/USB/LowLevel/Endpoint.h ****  */
  50:../../LUFA/Drivers/USB/LowLevel/Endpoint.h **** 
  51:../../LUFA/Drivers/USB/LowLevel/Endpoint.h **** /** @defgroup Group_EndpointRW Endpoint Data Reading and Writing
  52:../../LUFA/Drivers/USB/LowLevel/Endpoint.h ****  *
  53:../../LUFA/Drivers/USB/LowLevel/Endpoint.h ****  *  Functions, macros, variables, enums and types related to data reading and writing from and to e
  54:../../LUFA/Drivers/USB/LowLevel/Endpoint.h ****  */
  55:../../LUFA/Drivers/USB/LowLevel/Endpoint.h ****  
  56:../../LUFA/Drivers/USB/LowLevel/Endpoint.h **** /** \ingroup Group_EndpointRW  
  57:../../LUFA/Drivers/USB/LowLevel/Endpoint.h ****  *  @defgroup Group_EndpointPrimitiveRW Read/Write of Primitive Data Types
  58:../../LUFA/Drivers/USB/LowLevel/Endpoint.h ****  *
  59:../../LUFA/Drivers/USB/LowLevel/Endpoint.h ****  *  Functions, macros, variables, enums and types related to data reading and writing of primitive 
  60:../../LUFA/Drivers/USB/LowLevel/Endpoint.h ****  *  from and to endpoints.
  61:../../LUFA/Drivers/USB/LowLevel/Endpoint.h ****  */ 
  62:../../LUFA/Drivers/USB/LowLevel/Endpoint.h **** 
  63:../../LUFA/Drivers/USB/LowLevel/Endpoint.h **** /** \ingroup Group_EndpointRW  
  64:../../LUFA/Drivers/USB/LowLevel/Endpoint.h ****  *  @defgroup Group_EndpointStreamRW Read/Write of Multi-Byte Streams
  65:../../LUFA/Drivers/USB/LowLevel/Endpoint.h ****  *
  66:../../LUFA/Drivers/USB/LowLevel/Endpoint.h ****  *  Functions, macros, variables, enums and types related to data reading and writing of data strea
  67:../../LUFA/Drivers/USB/LowLevel/Endpoint.h ****  *  and to endpoints.
  68:../../LUFA/Drivers/USB/LowLevel/Endpoint.h ****  */ 
  69:../../LUFA/Drivers/USB/LowLevel/Endpoint.h **** 
  70:../../LUFA/Drivers/USB/LowLevel/Endpoint.h **** /** @defgroup Group_EndpointPacketManagement Endpoint Packet Management
  71:../../LUFA/Drivers/USB/LowLevel/Endpoint.h ****  *
  72:../../LUFA/Drivers/USB/LowLevel/Endpoint.h ****  *  Functions, macros, variables, enums and types related to packet management of endpoints.
  73:../../LUFA/Drivers/USB/LowLevel/Endpoint.h ****  */
  74:../../LUFA/Drivers/USB/LowLevel/Endpoint.h **** 
  75:../../LUFA/Drivers/USB/LowLevel/Endpoint.h **** #ifndef __ENDPOINT_H__
  76:../../LUFA/Drivers/USB/LowLevel/Endpoint.h **** #define __ENDPOINT_H__
  77:../../LUFA/Drivers/USB/LowLevel/Endpoint.h **** 
  78:../../LUFA/Drivers/USB/LowLevel/Endpoint.h **** 	/* Includes: */
  79:../../LUFA/Drivers/USB/LowLevel/Endpoint.h **** 		#include <avr/io.h>
  80:../../LUFA/Drivers/USB/LowLevel/Endpoint.h **** 		#include <avr/pgmspace.h>
  81:../../LUFA/Drivers/USB/LowLevel/Endpoint.h **** 		#include <avr/eeprom.h>
  82:../../LUFA/Drivers/USB/LowLevel/Endpoint.h **** 		#include <stdbool.h>
  83:../../LUFA/Drivers/USB/LowLevel/Endpoint.h **** 
  84:../../LUFA/Drivers/USB/LowLevel/Endpoint.h **** 		#include "../../../Common/Common.h"
  85:../../LUFA/Drivers/USB/LowLevel/Endpoint.h **** 		#include "../HighLevel/USBTask.h"
  86:../../LUFA/Drivers/USB/LowLevel/Endpoint.h **** 		#include "USBInterrupt.h"
  87:../../LUFA/Drivers/USB/LowLevel/Endpoint.h **** 
  88:../../LUFA/Drivers/USB/LowLevel/Endpoint.h **** 		#if !defined(NO_STREAM_CALLBACKS) || defined(__DOXYGEN__)
  89:../../LUFA/Drivers/USB/LowLevel/Endpoint.h **** 			#include "../HighLevel/StreamCallbacks.h"
  90:../../LUFA/Drivers/USB/LowLevel/Endpoint.h **** 		#endif
  91:../../LUFA/Drivers/USB/LowLevel/Endpoint.h **** 		
  92:../../LUFA/Drivers/USB/LowLevel/Endpoint.h **** 	/* Enable C linkage for C++ Compilers: */
  93:../../LUFA/Drivers/USB/LowLevel/Endpoint.h **** 		#if defined(__cplusplus)
  94:../../LUFA/Drivers/USB/LowLevel/Endpoint.h **** 			extern "C" {
  95:../../LUFA/Drivers/USB/LowLevel/Endpoint.h **** 		#endif
  96:../../LUFA/Drivers/USB/LowLevel/Endpoint.h **** 
  97:../../LUFA/Drivers/USB/LowLevel/Endpoint.h **** 	/* Preprocessor Checks: */
  98:../../LUFA/Drivers/USB/LowLevel/Endpoint.h **** 		#if !defined(__INCLUDE_FROM_USB_DRIVER)
  99:../../LUFA/Drivers/USB/LowLevel/Endpoint.h **** 			#error Do not include this file directly. Include LUFA/Drivers/USB/USB.h instead.
 100:../../LUFA/Drivers/USB/LowLevel/Endpoint.h **** 		#endif
 101:../../LUFA/Drivers/USB/LowLevel/Endpoint.h **** 		
 102:../../LUFA/Drivers/USB/LowLevel/Endpoint.h **** 	/* Public Interface - May be used in end-application: */
 103:../../LUFA/Drivers/USB/LowLevel/Endpoint.h **** 		/* Macros: */
 104:../../LUFA/Drivers/USB/LowLevel/Endpoint.h **** 			/** Endpoint data direction mask for \ref Endpoint_ConfigureEndpoint(). This indicates that the 
 105:../../LUFA/Drivers/USB/LowLevel/Endpoint.h **** 			 *  should be initialized in the OUT direction - i.e. data flows from host to device.
 106:../../LUFA/Drivers/USB/LowLevel/Endpoint.h **** 			 */
 107:../../LUFA/Drivers/USB/LowLevel/Endpoint.h **** 			#define ENDPOINT_DIR_OUT                      (0 << EPDIR)
 108:../../LUFA/Drivers/USB/LowLevel/Endpoint.h **** 
 109:../../LUFA/Drivers/USB/LowLevel/Endpoint.h **** 			/** Endpoint data direction mask for \ref Endpoint_ConfigureEndpoint(). This indicates that the 
 110:../../LUFA/Drivers/USB/LowLevel/Endpoint.h **** 			 *  should be initialized in the IN direction - i.e. data flows from device to host.
 111:../../LUFA/Drivers/USB/LowLevel/Endpoint.h **** 			 */
 112:../../LUFA/Drivers/USB/LowLevel/Endpoint.h **** 			#define ENDPOINT_DIR_IN                       (1 << EPDIR)
 113:../../LUFA/Drivers/USB/LowLevel/Endpoint.h **** 
 114:../../LUFA/Drivers/USB/LowLevel/Endpoint.h **** 			/** Mask for the bank mode selection for the \ref Endpoint_ConfigureEndpoint() macro. This indic
 115:../../LUFA/Drivers/USB/LowLevel/Endpoint.h **** 			 *  that the endpoint should have one single bank, which requires less USB FIFO memory but resul
 116:../../LUFA/Drivers/USB/LowLevel/Endpoint.h **** 			 *  in slower transfers as only one USB device (the AVR or the host) can access the endpoint's
 117:../../LUFA/Drivers/USB/LowLevel/Endpoint.h **** 			 *  bank at the one time.
 118:../../LUFA/Drivers/USB/LowLevel/Endpoint.h **** 			 */
 119:../../LUFA/Drivers/USB/LowLevel/Endpoint.h **** 			#define ENDPOINT_BANK_SINGLE                  (0 << EPBK0)
 120:../../LUFA/Drivers/USB/LowLevel/Endpoint.h **** 
 121:../../LUFA/Drivers/USB/LowLevel/Endpoint.h **** 			/** Mask for the bank mode selection for the \ref Endpoint_ConfigureEndpoint() macro. This indic
 122:../../LUFA/Drivers/USB/LowLevel/Endpoint.h **** 			 *  that the endpoint should have two banks, which requires more USB FIFO memory but results
 123:../../LUFA/Drivers/USB/LowLevel/Endpoint.h **** 			 *  in faster transfers as one USB device (the AVR or the host) can access one bank while the ot
 124:../../LUFA/Drivers/USB/LowLevel/Endpoint.h **** 			 *  accesses the second bank.
 125:../../LUFA/Drivers/USB/LowLevel/Endpoint.h **** 			 */
 126:../../LUFA/Drivers/USB/LowLevel/Endpoint.h **** 			#define ENDPOINT_BANK_DOUBLE                  (1 << EPBK0)
 127:../../LUFA/Drivers/USB/LowLevel/Endpoint.h **** 			
 128:../../LUFA/Drivers/USB/LowLevel/Endpoint.h **** 			/** Endpoint address for the default control endpoint, which always resides in address 0. This i
 129:../../LUFA/Drivers/USB/LowLevel/Endpoint.h **** 			 *  defined for convenience to give more readable code when used with the endpoint macros.
 130:../../LUFA/Drivers/USB/LowLevel/Endpoint.h **** 			 */
 131:../../LUFA/Drivers/USB/LowLevel/Endpoint.h **** 			#define ENDPOINT_CONTROLEP                    0
 132:../../LUFA/Drivers/USB/LowLevel/Endpoint.h **** 
 133:../../LUFA/Drivers/USB/LowLevel/Endpoint.h **** 			#if (!defined(FIXED_CONTROL_ENDPOINT_SIZE) || defined(__DOXYGEN__))
 134:../../LUFA/Drivers/USB/LowLevel/Endpoint.h **** 				/** Default size of the default control endpoint's bank, until altered by the control endpoint 
 135:../../LUFA/Drivers/USB/LowLevel/Endpoint.h **** 				 *  value in the device descriptor. Not available if the FIXED_CONTROL_ENDPOINT_SIZE token is d
 136:../../LUFA/Drivers/USB/LowLevel/Endpoint.h **** 				 */
 137:../../LUFA/Drivers/USB/LowLevel/Endpoint.h **** 				#define ENDPOINT_CONTROLEP_DEFAULT_SIZE   8
 138:../../LUFA/Drivers/USB/LowLevel/Endpoint.h **** 			#endif
 139:../../LUFA/Drivers/USB/LowLevel/Endpoint.h **** 			
 140:../../LUFA/Drivers/USB/LowLevel/Endpoint.h **** 			/** Endpoint number mask, for masking against endpoint addresses to retrieve the endpoint's
 141:../../LUFA/Drivers/USB/LowLevel/Endpoint.h **** 			 *  numerical address in the device.
 142:../../LUFA/Drivers/USB/LowLevel/Endpoint.h **** 			 */
 143:../../LUFA/Drivers/USB/LowLevel/Endpoint.h **** 			#define ENDPOINT_EPNUM_MASK                   0x07
 144:../../LUFA/Drivers/USB/LowLevel/Endpoint.h **** 
 145:../../LUFA/Drivers/USB/LowLevel/Endpoint.h **** 			/** Endpoint direction mask, for masking against endpoint addresses to retrieve the endpoint's
 146:../../LUFA/Drivers/USB/LowLevel/Endpoint.h **** 			 *  direction for comparing with the ENDPOINT_DESCRIPTOR_DIR_* masks.
 147:../../LUFA/Drivers/USB/LowLevel/Endpoint.h **** 			 */
 148:../../LUFA/Drivers/USB/LowLevel/Endpoint.h **** 			#define ENDPOINT_EPDIR_MASK                   0x80
 149:../../LUFA/Drivers/USB/LowLevel/Endpoint.h **** 
 150:../../LUFA/Drivers/USB/LowLevel/Endpoint.h **** 			/** Endpoint bank size mask, for masking against endpoint addresses to retrieve the endpoint's
 151:../../LUFA/Drivers/USB/LowLevel/Endpoint.h **** 			 *  bank size in the device.
 152:../../LUFA/Drivers/USB/LowLevel/Endpoint.h **** 			 */
 153:../../LUFA/Drivers/USB/LowLevel/Endpoint.h **** 			#define ENDPOINT_EPSIZE_MASK                  0x7F
 154:../../LUFA/Drivers/USB/LowLevel/Endpoint.h **** 			
 155:../../LUFA/Drivers/USB/LowLevel/Endpoint.h **** 			/** Maximum size in bytes of a given endpoint.
 156:../../LUFA/Drivers/USB/LowLevel/Endpoint.h **** 			 *
 157:../../LUFA/Drivers/USB/LowLevel/Endpoint.h **** 			 *  \param[in] n  Endpoint number, a value between 0 and (ENDPOINT_TOTAL_ENDPOINTS - 1)
 158:../../LUFA/Drivers/USB/LowLevel/Endpoint.h **** 			 */				
 159:../../LUFA/Drivers/USB/LowLevel/Endpoint.h **** 			#define ENDPOINT_MAX_SIZE(n)                  _ENDPOINT_GET_MAXSIZE(n)
 160:../../LUFA/Drivers/USB/LowLevel/Endpoint.h **** 
 161:../../LUFA/Drivers/USB/LowLevel/Endpoint.h **** 			/** Indicates if the given endpoint supports double banking.
 162:../../LUFA/Drivers/USB/LowLevel/Endpoint.h **** 			 *
 163:../../LUFA/Drivers/USB/LowLevel/Endpoint.h **** 			 *  \param[in] n  Endpoint number, a value between 0 and (ENDPOINT_TOTAL_ENDPOINTS - 1)
 164:../../LUFA/Drivers/USB/LowLevel/Endpoint.h **** 			 */				
 165:../../LUFA/Drivers/USB/LowLevel/Endpoint.h **** 			#define ENDPOINT_DOUBLEBANK_SUPPORTED(n)      _ENDPOINT_GET_DOUBLEBANK(n)
 166:../../LUFA/Drivers/USB/LowLevel/Endpoint.h **** 
 167:../../LUFA/Drivers/USB/LowLevel/Endpoint.h **** 			#if !defined(CONTROL_ONLY_DEVICE)
 168:../../LUFA/Drivers/USB/LowLevel/Endpoint.h **** 				#if defined(USB_SERIES_4_AVR) || defined(USB_SERIES_6_AVR) || defined(USB_SERIES_7_AVR) || defi
 169:../../LUFA/Drivers/USB/LowLevel/Endpoint.h **** 					/** Total number of endpoints (including the default control endpoint at address 0) which may
 170:../../LUFA/Drivers/USB/LowLevel/Endpoint.h **** 					 *  be used in the device. Different USB AVR models support different amounts of endpoints,
 171:../../LUFA/Drivers/USB/LowLevel/Endpoint.h **** 					 *  this value reflects the maximum number of endpoints for the currently selected AVR model.
 172:../../LUFA/Drivers/USB/LowLevel/Endpoint.h **** 					 */
 173:../../LUFA/Drivers/USB/LowLevel/Endpoint.h **** 					#define ENDPOINT_TOTAL_ENDPOINTS      7
 174:../../LUFA/Drivers/USB/LowLevel/Endpoint.h **** 				#else
 175:../../LUFA/Drivers/USB/LowLevel/Endpoint.h **** 					#define ENDPOINT_TOTAL_ENDPOINTS      5
 176:../../LUFA/Drivers/USB/LowLevel/Endpoint.h **** 				#endif
 177:../../LUFA/Drivers/USB/LowLevel/Endpoint.h **** 			#else
 178:../../LUFA/Drivers/USB/LowLevel/Endpoint.h **** 				#define ENDPOINT_TOTAL_ENDPOINTS          1
 179:../../LUFA/Drivers/USB/LowLevel/Endpoint.h **** 			#endif
 180:../../LUFA/Drivers/USB/LowLevel/Endpoint.h **** 
 181:../../LUFA/Drivers/USB/LowLevel/Endpoint.h **** 		/* Enums: */
 182:../../LUFA/Drivers/USB/LowLevel/Endpoint.h **** 			/** Enum for the possible error return codes of the \ref Endpoint_WaitUntilReady() function.
 183:../../LUFA/Drivers/USB/LowLevel/Endpoint.h **** 			 *
 184:../../LUFA/Drivers/USB/LowLevel/Endpoint.h **** 			 *  \ingroup Group_EndpointRW
 185:../../LUFA/Drivers/USB/LowLevel/Endpoint.h **** 			 */
 186:../../LUFA/Drivers/USB/LowLevel/Endpoint.h **** 			enum Endpoint_WaitUntilReady_ErrorCodes_t
 187:../../LUFA/Drivers/USB/LowLevel/Endpoint.h **** 			{
 188:../../LUFA/Drivers/USB/LowLevel/Endpoint.h **** 				ENDPOINT_READYWAIT_NoError                 = 0, /**< Endpoint is ready for next packet, no erro
 189:../../LUFA/Drivers/USB/LowLevel/Endpoint.h **** 				ENDPOINT_READYWAIT_EndpointStalled         = 1, /**< The endpoint was stalled during the stream
 190:../../LUFA/Drivers/USB/LowLevel/Endpoint.h **** 				                                                 *   transfer by the host or device.
 191:../../LUFA/Drivers/USB/LowLevel/Endpoint.h **** 				                                                 */
 192:../../LUFA/Drivers/USB/LowLevel/Endpoint.h **** 				ENDPOINT_READYWAIT_DeviceDisconnected      = 2,	/**< Device was disconnected from the host whil
 193:../../LUFA/Drivers/USB/LowLevel/Endpoint.h **** 				                                                 *   waiting for the endpoint to become ready.
 194:../../LUFA/Drivers/USB/LowLevel/Endpoint.h **** 				                                                 */
 195:../../LUFA/Drivers/USB/LowLevel/Endpoint.h **** 				ENDPOINT_READYWAIT_BusSuspended            = 3, /**< The USB bus has been suspended by the host
 196:../../LUFA/Drivers/USB/LowLevel/Endpoint.h **** 				                                                 *   no USB endpoint traffic can occur until th
 197:../../LUFA/Drivers/USB/LowLevel/Endpoint.h **** 				                                                 *   has resumed.
 198:../../LUFA/Drivers/USB/LowLevel/Endpoint.h **** 				                                                 */
 199:../../LUFA/Drivers/USB/LowLevel/Endpoint.h **** 				ENDPOINT_READYWAIT_Timeout                 = 4, /**< The host failed to accept or send the next
 200:../../LUFA/Drivers/USB/LowLevel/Endpoint.h **** 				                                                 *   within the software timeout period set by 
 201:../../LUFA/Drivers/USB/LowLevel/Endpoint.h **** 				                                                 *   \ref USB_STREAM_TIMEOUT_MS macro.
 202:../../LUFA/Drivers/USB/LowLevel/Endpoint.h **** 				                                                 */
 203:../../LUFA/Drivers/USB/LowLevel/Endpoint.h **** 			};
 204:../../LUFA/Drivers/USB/LowLevel/Endpoint.h **** 		
 205:../../LUFA/Drivers/USB/LowLevel/Endpoint.h **** 			/** Enum for the possible error return codes of the Endpoint_*_Stream_* functions.
 206:../../LUFA/Drivers/USB/LowLevel/Endpoint.h **** 			 *
 207:../../LUFA/Drivers/USB/LowLevel/Endpoint.h **** 			 *  \ingroup Group_EndpointStreamRW
 208:../../LUFA/Drivers/USB/LowLevel/Endpoint.h **** 			 */
 209:../../LUFA/Drivers/USB/LowLevel/Endpoint.h **** 			enum Endpoint_Stream_RW_ErrorCodes_t
 210:../../LUFA/Drivers/USB/LowLevel/Endpoint.h **** 			{
 211:../../LUFA/Drivers/USB/LowLevel/Endpoint.h **** 				ENDPOINT_RWSTREAM_NoError            = 0, /**< Command completed successfully, no error. */
 212:../../LUFA/Drivers/USB/LowLevel/Endpoint.h **** 				ENDPOINT_RWSTREAM_EndpointStalled    = 1, /**< The endpoint was stalled during the stream
 213:../../LUFA/Drivers/USB/LowLevel/Endpoint.h **** 				                                           *   transfer by the host or device.
 214:../../LUFA/Drivers/USB/LowLevel/Endpoint.h **** 				                                           */
 215:../../LUFA/Drivers/USB/LowLevel/Endpoint.h **** 				ENDPOINT_RWSTREAM_DeviceDisconnected = 2, /**< Device was disconnected from the host during
 216:../../LUFA/Drivers/USB/LowLevel/Endpoint.h **** 				                                           *   the transfer.
 217:../../LUFA/Drivers/USB/LowLevel/Endpoint.h **** 				                                           */
 218:../../LUFA/Drivers/USB/LowLevel/Endpoint.h **** 				ENDPOINT_RWSTREAM_BusSuspended       = 3, /**< The USB bus has been suspended by the host and
 219:../../LUFA/Drivers/USB/LowLevel/Endpoint.h **** 				                                           *   no USB endpoint traffic can occur until the bus
 220:../../LUFA/Drivers/USB/LowLevel/Endpoint.h **** 				                                           *   has resumed.
 221:../../LUFA/Drivers/USB/LowLevel/Endpoint.h **** 				                                           */
 222:../../LUFA/Drivers/USB/LowLevel/Endpoint.h **** 				ENDPOINT_RWSTREAM_Timeout            = 4, /**< The host failed to accept or send the next packe
 223:../../LUFA/Drivers/USB/LowLevel/Endpoint.h **** 				                                           *   within the software timeout period set by the
 224:../../LUFA/Drivers/USB/LowLevel/Endpoint.h **** 				                                           *   \ref USB_STREAM_TIMEOUT_MS macro.
 225:../../LUFA/Drivers/USB/LowLevel/Endpoint.h **** 				                                           */
 226:../../LUFA/Drivers/USB/LowLevel/Endpoint.h **** 				ENDPOINT_RWSTREAM_CallbackAborted    = 5, /**< Indicates that the stream's callback function
 227:../../LUFA/Drivers/USB/LowLevel/Endpoint.h **** 			                                               *   aborted the transfer early.
 228:../../LUFA/Drivers/USB/LowLevel/Endpoint.h **** 				                                           */
 229:../../LUFA/Drivers/USB/LowLevel/Endpoint.h **** 			};
 230:../../LUFA/Drivers/USB/LowLevel/Endpoint.h **** 			
 231:../../LUFA/Drivers/USB/LowLevel/Endpoint.h **** 			/** Enum for the possible error return codes of the Endpoint_*_Control_Stream_* functions..
 232:../../LUFA/Drivers/USB/LowLevel/Endpoint.h **** 			 *
 233:../../LUFA/Drivers/USB/LowLevel/Endpoint.h **** 			 *  \ingroup Group_EndpointStreamRW
 234:../../LUFA/Drivers/USB/LowLevel/Endpoint.h **** 			 */
 235:../../LUFA/Drivers/USB/LowLevel/Endpoint.h **** 			enum Endpoint_ControlStream_RW_ErrorCodes_t
 236:../../LUFA/Drivers/USB/LowLevel/Endpoint.h **** 			{
 237:../../LUFA/Drivers/USB/LowLevel/Endpoint.h **** 				ENDPOINT_RWCSTREAM_NoError            = 0, /**< Command completed successfully, no error. */
 238:../../LUFA/Drivers/USB/LowLevel/Endpoint.h **** 				ENDPOINT_RWCSTREAM_HostAborted        = 1, /**< The aborted the transfer prematurely. */
 239:../../LUFA/Drivers/USB/LowLevel/Endpoint.h **** 				ENDPOINT_RWCSTREAM_DeviceDisconnected = 2, /**< Device was disconnected from the host during
 240:../../LUFA/Drivers/USB/LowLevel/Endpoint.h **** 				                                            *   the transfer.
 241:../../LUFA/Drivers/USB/LowLevel/Endpoint.h **** 				                                            */
 242:../../LUFA/Drivers/USB/LowLevel/Endpoint.h **** 				ENDPOINT_RWCSTREAM_BusSuspended       = 3, /**< The USB bus has been suspended by the host and
 243:../../LUFA/Drivers/USB/LowLevel/Endpoint.h **** 				                                            *   no USB endpoint traffic can occur until the bus
 244:../../LUFA/Drivers/USB/LowLevel/Endpoint.h **** 				                                            *   has resumed.
 245:../../LUFA/Drivers/USB/LowLevel/Endpoint.h **** 				                                            */
 246:../../LUFA/Drivers/USB/LowLevel/Endpoint.h **** 			};
 247:../../LUFA/Drivers/USB/LowLevel/Endpoint.h **** 
 248:../../LUFA/Drivers/USB/LowLevel/Endpoint.h **** 		/* Inline Functions: */
 249:../../LUFA/Drivers/USB/LowLevel/Endpoint.h **** 			/** Indicates the number of bytes currently stored in the current endpoint's selected bank.
 250:../../LUFA/Drivers/USB/LowLevel/Endpoint.h **** 			 *
 251:../../LUFA/Drivers/USB/LowLevel/Endpoint.h **** 			 *  \note The return width of this function may differ, depending on the maximum endpoint bank s
 252:../../LUFA/Drivers/USB/LowLevel/Endpoint.h **** 			 *        of the selected AVR model.
 253:../../LUFA/Drivers/USB/LowLevel/Endpoint.h **** 			 *
 254:../../LUFA/Drivers/USB/LowLevel/Endpoint.h **** 			 *  \ingroup Group_EndpointRW
 255:../../LUFA/Drivers/USB/LowLevel/Endpoint.h **** 			 *
 256:../../LUFA/Drivers/USB/LowLevel/Endpoint.h **** 			 *  \return Total number of bytes in the currently selected Endpoint's FIFO buffer.
 257:../../LUFA/Drivers/USB/LowLevel/Endpoint.h **** 			 */
 258:../../LUFA/Drivers/USB/LowLevel/Endpoint.h **** 			static inline uint16_t Endpoint_BytesInEndpoint(void) ATTR_WARN_UNUSED_RESULT ATTR_ALWAYS_INLINE
 259:../../LUFA/Drivers/USB/LowLevel/Endpoint.h **** 			static inline uint16_t Endpoint_BytesInEndpoint(void)
 260:../../LUFA/Drivers/USB/LowLevel/Endpoint.h **** 			{
 261:../../LUFA/Drivers/USB/LowLevel/Endpoint.h **** 				#if defined(USB_SERIES_6_AVR) || defined(USB_SERIES_7_AVR)
 262:../../LUFA/Drivers/USB/LowLevel/Endpoint.h **** 					return UEBCX;
 263:../../LUFA/Drivers/USB/LowLevel/Endpoint.h **** 				#elif defined(USB_SERIES_4_AVR)
 264:../../LUFA/Drivers/USB/LowLevel/Endpoint.h **** 					return (((uint16_t)UEBCHX << 8) | UEBCLX);
 265:../../LUFA/Drivers/USB/LowLevel/Endpoint.h **** 				#elif defined(USB_SERIES_2_AVR)
 266:../../LUFA/Drivers/USB/LowLevel/Endpoint.h **** 					return UEBCLX;
 267:../../LUFA/Drivers/USB/LowLevel/Endpoint.h **** 				#endif
 268:../../LUFA/Drivers/USB/LowLevel/Endpoint.h **** 			}
 269:../../LUFA/Drivers/USB/LowLevel/Endpoint.h **** 		
 270:../../LUFA/Drivers/USB/LowLevel/Endpoint.h **** 			/** Get the endpoint address of the currently selected endpoint. This is typically used to save
 271:../../LUFA/Drivers/USB/LowLevel/Endpoint.h **** 			 *  the currently selected endpoint number so that it can be restored after another endpoint has
 272:../../LUFA/Drivers/USB/LowLevel/Endpoint.h **** 			 *  been manipulated.
 273:../../LUFA/Drivers/USB/LowLevel/Endpoint.h **** 			 *
 274:../../LUFA/Drivers/USB/LowLevel/Endpoint.h **** 			 *  \return Index of the currently selected endpoint.
 275:../../LUFA/Drivers/USB/LowLevel/Endpoint.h **** 			 */
 276:../../LUFA/Drivers/USB/LowLevel/Endpoint.h **** 			static inline uint8_t Endpoint_GetCurrentEndpoint(void) ATTR_WARN_UNUSED_RESULT ATTR_ALWAYS_INLI
 277:../../LUFA/Drivers/USB/LowLevel/Endpoint.h **** 			static inline uint8_t Endpoint_GetCurrentEndpoint(void)
 278:../../LUFA/Drivers/USB/LowLevel/Endpoint.h **** 			{
 279:../../LUFA/Drivers/USB/LowLevel/Endpoint.h **** 				#if !defined(CONTROL_ONLY_DEVICE)
 280:../../LUFA/Drivers/USB/LowLevel/Endpoint.h **** 					return (UENUM & ENDPOINT_EPNUM_MASK);
 281:../../LUFA/Drivers/USB/LowLevel/Endpoint.h **** 				#else
 282:../../LUFA/Drivers/USB/LowLevel/Endpoint.h **** 					return ENDPOINT_CONTROLEP;
 283:../../LUFA/Drivers/USB/LowLevel/Endpoint.h **** 				#endif
 284:../../LUFA/Drivers/USB/LowLevel/Endpoint.h **** 			}
 285:../../LUFA/Drivers/USB/LowLevel/Endpoint.h **** 			
 286:../../LUFA/Drivers/USB/LowLevel/Endpoint.h **** 			/** Selects the given endpoint number. If the address from the device descriptors is used, the
 287:../../LUFA/Drivers/USB/LowLevel/Endpoint.h **** 			 *  value should be masked with the \ref ENDPOINT_EPNUM_MASK constant to extract only the endpoi
 288:../../LUFA/Drivers/USB/LowLevel/Endpoint.h **** 			 *  number (and discarding the endpoint direction bit).
 289:../../LUFA/Drivers/USB/LowLevel/Endpoint.h **** 			 *
 290:../../LUFA/Drivers/USB/LowLevel/Endpoint.h **** 			 *  Any endpoint operations which do not require the endpoint number to be indicated will operat
 291:../../LUFA/Drivers/USB/LowLevel/Endpoint.h **** 			 *  the currently selected endpoint.
 292:../../LUFA/Drivers/USB/LowLevel/Endpoint.h **** 			 *
 293:../../LUFA/Drivers/USB/LowLevel/Endpoint.h **** 			 *  \param[in] EndpointNumber Endpoint number to select.
 294:../../LUFA/Drivers/USB/LowLevel/Endpoint.h **** 			 */
 295:../../LUFA/Drivers/USB/LowLevel/Endpoint.h **** 			static inline void Endpoint_SelectEndpoint(const uint8_t EndpointNumber) ATTR_ALWAYS_INLINE;
 296:../../LUFA/Drivers/USB/LowLevel/Endpoint.h **** 			static inline void Endpoint_SelectEndpoint(const uint8_t EndpointNumber)
 297:../../LUFA/Drivers/USB/LowLevel/Endpoint.h **** 			{
 298:../../LUFA/Drivers/USB/LowLevel/Endpoint.h **** 				#if !defined(CONTROL_ONLY_DEVICE)
 299:../../LUFA/Drivers/USB/LowLevel/Endpoint.h **** 					UENUM = EndpointNumber;
 300:../../LUFA/Drivers/USB/LowLevel/Endpoint.h **** 				#endif			
 301:../../LUFA/Drivers/USB/LowLevel/Endpoint.h **** 			}
 302:../../LUFA/Drivers/USB/LowLevel/Endpoint.h **** 			
 303:../../LUFA/Drivers/USB/LowLevel/Endpoint.h **** 			/** Resets the endpoint bank FIFO. This clears all the endpoint banks and resets the USB control
 304:../../LUFA/Drivers/USB/LowLevel/Endpoint.h **** 			 *  In and Out pointers to the bank's contents.
 305:../../LUFA/Drivers/USB/LowLevel/Endpoint.h **** 			 *
 306:../../LUFA/Drivers/USB/LowLevel/Endpoint.h **** 			 *  \param[in] EndpointNumber Endpoint number whose FIFO buffers are to be reset.
 307:../../LUFA/Drivers/USB/LowLevel/Endpoint.h **** 			 */
 308:../../LUFA/Drivers/USB/LowLevel/Endpoint.h **** 			static inline void Endpoint_ResetFIFO(const uint8_t EndpointNumber) ATTR_ALWAYS_INLINE;
 309:../../LUFA/Drivers/USB/LowLevel/Endpoint.h **** 			static inline void Endpoint_ResetFIFO(const uint8_t EndpointNumber)
 310:../../LUFA/Drivers/USB/LowLevel/Endpoint.h **** 			{
 311:../../LUFA/Drivers/USB/LowLevel/Endpoint.h **** 				UERST = (1 << EndpointNumber);
 312:../../LUFA/Drivers/USB/LowLevel/Endpoint.h **** 				UERST = 0;
 313:../../LUFA/Drivers/USB/LowLevel/Endpoint.h **** 			}
 314:../../LUFA/Drivers/USB/LowLevel/Endpoint.h **** 			
 315:../../LUFA/Drivers/USB/LowLevel/Endpoint.h **** 			/** Enables the currently selected endpoint so that data can be sent and received through it to
 316:../../LUFA/Drivers/USB/LowLevel/Endpoint.h **** 			 *  and from a host.
 317:../../LUFA/Drivers/USB/LowLevel/Endpoint.h **** 			 *
 318:../../LUFA/Drivers/USB/LowLevel/Endpoint.h **** 			 *  \note Endpoints must first be configured properly via \ref Endpoint_ConfigureEndpoint().
 319:../../LUFA/Drivers/USB/LowLevel/Endpoint.h **** 			 */
 320:../../LUFA/Drivers/USB/LowLevel/Endpoint.h **** 			static inline void Endpoint_EnableEndpoint(void) ATTR_ALWAYS_INLINE;
 321:../../LUFA/Drivers/USB/LowLevel/Endpoint.h **** 			static inline void Endpoint_EnableEndpoint(void)
 322:../../LUFA/Drivers/USB/LowLevel/Endpoint.h **** 			{
 323:../../LUFA/Drivers/USB/LowLevel/Endpoint.h **** 				UECONX |= (1 << EPEN);
 324:../../LUFA/Drivers/USB/LowLevel/Endpoint.h **** 			}
 325:../../LUFA/Drivers/USB/LowLevel/Endpoint.h **** 
 326:../../LUFA/Drivers/USB/LowLevel/Endpoint.h **** 			/** Disables the currently selected endpoint so that data cannot be sent and received through it
 327:../../LUFA/Drivers/USB/LowLevel/Endpoint.h **** 			 *  to and from a host.
 328:../../LUFA/Drivers/USB/LowLevel/Endpoint.h **** 			 */
 329:../../LUFA/Drivers/USB/LowLevel/Endpoint.h **** 			static inline void Endpoint_DisableEndpoint(void) ATTR_ALWAYS_INLINE;
 330:../../LUFA/Drivers/USB/LowLevel/Endpoint.h **** 			static inline void Endpoint_DisableEndpoint(void)
 331:../../LUFA/Drivers/USB/LowLevel/Endpoint.h **** 			{
 332:../../LUFA/Drivers/USB/LowLevel/Endpoint.h **** 				UECONX &= ~(1 << EPEN);
 333:../../LUFA/Drivers/USB/LowLevel/Endpoint.h **** 			}
 334:../../LUFA/Drivers/USB/LowLevel/Endpoint.h **** 			
 335:../../LUFA/Drivers/USB/LowLevel/Endpoint.h **** 			/** Determines if the currently selected endpoint is enabled, but not necessarily configured.
 336:../../LUFA/Drivers/USB/LowLevel/Endpoint.h **** 			 *
 337:../../LUFA/Drivers/USB/LowLevel/Endpoint.h **** 			 * \return Boolean True if the currently selected endpoint is enabled, false otherwise.
 338:../../LUFA/Drivers/USB/LowLevel/Endpoint.h **** 			 */
 339:../../LUFA/Drivers/USB/LowLevel/Endpoint.h **** 			static inline bool Endpoint_IsEnabled(void) ATTR_WARN_UNUSED_RESULT ATTR_ALWAYS_INLINE;
 340:../../LUFA/Drivers/USB/LowLevel/Endpoint.h **** 			static inline bool Endpoint_IsEnabled(void)
 341:../../LUFA/Drivers/USB/LowLevel/Endpoint.h **** 			{
 342:../../LUFA/Drivers/USB/LowLevel/Endpoint.h **** 				return ((UECONX & (1 << EPEN)) ? true : false);
 343:../../LUFA/Drivers/USB/LowLevel/Endpoint.h **** 			}
 344:../../LUFA/Drivers/USB/LowLevel/Endpoint.h **** 			
 345:../../LUFA/Drivers/USB/LowLevel/Endpoint.h **** 			/** Determines if the currently selected endpoint may be read from (if data is waiting in the en
 346:../../LUFA/Drivers/USB/LowLevel/Endpoint.h **** 			 *  bank and the endpoint is an OUT direction, or if the bank is not yet full if the endpoint is
 347:../../LUFA/Drivers/USB/LowLevel/Endpoint.h **** 			 *  direction). This function will return false if an error has occurred in the endpoint, if the
 348:../../LUFA/Drivers/USB/LowLevel/Endpoint.h **** 			 *  is an OUT direction and no packet (or an empty packet) has been received, or if the endpoint
 349:../../LUFA/Drivers/USB/LowLevel/Endpoint.h **** 			 *  direction and the endpoint bank is full.
 350:../../LUFA/Drivers/USB/LowLevel/Endpoint.h **** 			 *
 351:../../LUFA/Drivers/USB/LowLevel/Endpoint.h **** 			 *  \ingroup Group_EndpointPacketManagement
 352:../../LUFA/Drivers/USB/LowLevel/Endpoint.h **** 			 *
 353:../../LUFA/Drivers/USB/LowLevel/Endpoint.h **** 			 *  \return Boolean true if the currently selected endpoint may be read from or written to, depe
 354:../../LUFA/Drivers/USB/LowLevel/Endpoint.h **** 			 */
 355:../../LUFA/Drivers/USB/LowLevel/Endpoint.h **** 			static inline bool Endpoint_IsReadWriteAllowed(void) ATTR_WARN_UNUSED_RESULT ATTR_ALWAYS_INLINE;
 356:../../LUFA/Drivers/USB/LowLevel/Endpoint.h **** 			static inline bool Endpoint_IsReadWriteAllowed(void)
 357:../../LUFA/Drivers/USB/LowLevel/Endpoint.h **** 			{
 358:../../LUFA/Drivers/USB/LowLevel/Endpoint.h **** 				return ((UEINTX & (1 << RWAL)) ? true : false);
 359:../../LUFA/Drivers/USB/LowLevel/Endpoint.h **** 			}
 360:../../LUFA/Drivers/USB/LowLevel/Endpoint.h **** 			
 361:../../LUFA/Drivers/USB/LowLevel/Endpoint.h **** 			/** Determines if the currently selected endpoint is configured.
 362:../../LUFA/Drivers/USB/LowLevel/Endpoint.h **** 			 *
 363:../../LUFA/Drivers/USB/LowLevel/Endpoint.h **** 			 *  \return Boolean true if the currently selected endpoint has been configured, false otherwise
 364:../../LUFA/Drivers/USB/LowLevel/Endpoint.h **** 			 */
 365:../../LUFA/Drivers/USB/LowLevel/Endpoint.h **** 			static inline bool Endpoint_IsConfigured(void) ATTR_WARN_UNUSED_RESULT ATTR_ALWAYS_INLINE;
 366:../../LUFA/Drivers/USB/LowLevel/Endpoint.h **** 			static inline bool Endpoint_IsConfigured(void)
 367:../../LUFA/Drivers/USB/LowLevel/Endpoint.h **** 			{
 368:../../LUFA/Drivers/USB/LowLevel/Endpoint.h **** 				return ((UESTA0X & (1 << CFGOK)) ? true : false);
 369:../../LUFA/Drivers/USB/LowLevel/Endpoint.h **** 			}
 370:../../LUFA/Drivers/USB/LowLevel/Endpoint.h **** 			
 371:../../LUFA/Drivers/USB/LowLevel/Endpoint.h **** 			/** Returns a mask indicating which INTERRUPT type endpoints have interrupted - i.e. their
 372:../../LUFA/Drivers/USB/LowLevel/Endpoint.h **** 			 *  interrupt duration has elapsed. Which endpoints have interrupted can be determined by
 373:../../LUFA/Drivers/USB/LowLevel/Endpoint.h **** 			 *  masking the return value against (1 << {Endpoint Number}).
 374:../../LUFA/Drivers/USB/LowLevel/Endpoint.h **** 			 *
 375:../../LUFA/Drivers/USB/LowLevel/Endpoint.h **** 			 *  \return Mask whose bits indicate which endpoints have interrupted.
 376:../../LUFA/Drivers/USB/LowLevel/Endpoint.h **** 			 */
 377:../../LUFA/Drivers/USB/LowLevel/Endpoint.h **** 			static inline uint8_t Endpoint_GetEndpointInterrupts(void) ATTR_WARN_UNUSED_RESULT ATTR_ALWAYS_I
 378:../../LUFA/Drivers/USB/LowLevel/Endpoint.h **** 			static inline uint8_t Endpoint_GetEndpointInterrupts(void)
 379:../../LUFA/Drivers/USB/LowLevel/Endpoint.h **** 			{
 380:../../LUFA/Drivers/USB/LowLevel/Endpoint.h **** 				return UEINT;
 381:../../LUFA/Drivers/USB/LowLevel/Endpoint.h **** 			}
 382:../../LUFA/Drivers/USB/LowLevel/Endpoint.h **** 			
 383:../../LUFA/Drivers/USB/LowLevel/Endpoint.h **** 			/** Determines if the specified endpoint number has interrupted (valid only for INTERRUPT type
 384:../../LUFA/Drivers/USB/LowLevel/Endpoint.h **** 			 *  endpoints).
 385:../../LUFA/Drivers/USB/LowLevel/Endpoint.h **** 			 *
 386:../../LUFA/Drivers/USB/LowLevel/Endpoint.h **** 			 *  \param[in] EndpointNumber  Index of the endpoint whose interrupt flag should be tested.
 387:../../LUFA/Drivers/USB/LowLevel/Endpoint.h **** 			 *
 388:../../LUFA/Drivers/USB/LowLevel/Endpoint.h **** 			 *  \return Boolean true if the specified endpoint has interrupted, false otherwise.
 389:../../LUFA/Drivers/USB/LowLevel/Endpoint.h **** 			 */
 390:../../LUFA/Drivers/USB/LowLevel/Endpoint.h **** 			static inline bool Endpoint_HasEndpointInterrupted(const uint8_t EndpointNumber) ATTR_WARN_UNUSE
 391:../../LUFA/Drivers/USB/LowLevel/Endpoint.h **** 			static inline bool Endpoint_HasEndpointInterrupted(const uint8_t EndpointNumber)
 392:../../LUFA/Drivers/USB/LowLevel/Endpoint.h **** 			{
 393:../../LUFA/Drivers/USB/LowLevel/Endpoint.h **** 				return ((UEINT & (1 << EndpointNumber)) ? true : false);
 394:../../LUFA/Drivers/USB/LowLevel/Endpoint.h **** 			}
 395:../../LUFA/Drivers/USB/LowLevel/Endpoint.h **** 			
 396:../../LUFA/Drivers/USB/LowLevel/Endpoint.h **** 			/** Determines if the selected IN endpoint is ready for a new packet.
 397:../../LUFA/Drivers/USB/LowLevel/Endpoint.h **** 			 *
 398:../../LUFA/Drivers/USB/LowLevel/Endpoint.h **** 			 *  \ingroup Group_EndpointPacketManagement
 399:../../LUFA/Drivers/USB/LowLevel/Endpoint.h **** 			 *
 400:../../LUFA/Drivers/USB/LowLevel/Endpoint.h **** 			 *  \return Boolean true if the current endpoint is ready for an IN packet, false otherwise.
 401:../../LUFA/Drivers/USB/LowLevel/Endpoint.h **** 			 */
 402:../../LUFA/Drivers/USB/LowLevel/Endpoint.h **** 			static inline bool Endpoint_IsINReady(void) ATTR_WARN_UNUSED_RESULT ATTR_ALWAYS_INLINE;
 403:../../LUFA/Drivers/USB/LowLevel/Endpoint.h **** 			static inline bool Endpoint_IsINReady(void)
 404:../../LUFA/Drivers/USB/LowLevel/Endpoint.h **** 			{
 405:../../LUFA/Drivers/USB/LowLevel/Endpoint.h **** 				return ((UEINTX & (1 << TXINI))  ? true : false);
 406:../../LUFA/Drivers/USB/LowLevel/Endpoint.h **** 			}
 407:../../LUFA/Drivers/USB/LowLevel/Endpoint.h **** 			
 408:../../LUFA/Drivers/USB/LowLevel/Endpoint.h **** 			/** Determines if the selected OUT endpoint has received new packet.
 409:../../LUFA/Drivers/USB/LowLevel/Endpoint.h **** 			 *
 410:../../LUFA/Drivers/USB/LowLevel/Endpoint.h **** 			 *  \ingroup Group_EndpointPacketManagement
 411:../../LUFA/Drivers/USB/LowLevel/Endpoint.h **** 			 *
 412:../../LUFA/Drivers/USB/LowLevel/Endpoint.h **** 			 *  \return Boolean true if current endpoint is has received an OUT packet, false otherwise.
 413:../../LUFA/Drivers/USB/LowLevel/Endpoint.h **** 			 */
 414:../../LUFA/Drivers/USB/LowLevel/Endpoint.h **** 			static inline bool Endpoint_IsOUTReceived(void) ATTR_WARN_UNUSED_RESULT ATTR_ALWAYS_INLINE;
 415:../../LUFA/Drivers/USB/LowLevel/Endpoint.h **** 			static inline bool Endpoint_IsOUTReceived(void)
 416:../../LUFA/Drivers/USB/LowLevel/Endpoint.h **** 			{
 417:../../LUFA/Drivers/USB/LowLevel/Endpoint.h **** 				return ((UEINTX & (1 << RXOUTI)) ? true : false);
 418:../../LUFA/Drivers/USB/LowLevel/Endpoint.h **** 			}
 419:../../LUFA/Drivers/USB/LowLevel/Endpoint.h **** 			
 420:../../LUFA/Drivers/USB/LowLevel/Endpoint.h **** 			/** Determines if the current CONTROL type endpoint has received a SETUP packet.
 421:../../LUFA/Drivers/USB/LowLevel/Endpoint.h **** 			 *
 422:../../LUFA/Drivers/USB/LowLevel/Endpoint.h **** 			 *  \ingroup Group_EndpointPacketManagement
 423:../../LUFA/Drivers/USB/LowLevel/Endpoint.h **** 			 *
 424:../../LUFA/Drivers/USB/LowLevel/Endpoint.h **** 			 *  \return Boolean true if the selected endpoint has received a SETUP packet, false otherwise.
 425:../../LUFA/Drivers/USB/LowLevel/Endpoint.h **** 			 */
 426:../../LUFA/Drivers/USB/LowLevel/Endpoint.h **** 			static inline bool Endpoint_IsSETUPReceived(void) ATTR_WARN_UNUSED_RESULT ATTR_ALWAYS_INLINE;
 427:../../LUFA/Drivers/USB/LowLevel/Endpoint.h **** 			static inline bool Endpoint_IsSETUPReceived(void)
 428:../../LUFA/Drivers/USB/LowLevel/Endpoint.h **** 			{
 429:../../LUFA/Drivers/USB/LowLevel/Endpoint.h **** 				return ((UEINTX & (1 << RXSTPI)) ? true : false);
 430:../../LUFA/Drivers/USB/LowLevel/Endpoint.h **** 			}
 431:../../LUFA/Drivers/USB/LowLevel/Endpoint.h **** 			
 432:../../LUFA/Drivers/USB/LowLevel/Endpoint.h **** 			/** Clears a received SETUP packet on the currently selected CONTROL type endpoint, freeing up t
 433:../../LUFA/Drivers/USB/LowLevel/Endpoint.h **** 			 *  endpoint for the next packet.
 434:../../LUFA/Drivers/USB/LowLevel/Endpoint.h **** 			 *
 435:../../LUFA/Drivers/USB/LowLevel/Endpoint.h **** 			 *  \ingroup Group_EndpointPacketManagement
 436:../../LUFA/Drivers/USB/LowLevel/Endpoint.h **** 			 *
 437:../../LUFA/Drivers/USB/LowLevel/Endpoint.h **** 			 *  \note This is not applicable for non CONTROL type endpoints. 
 438:../../LUFA/Drivers/USB/LowLevel/Endpoint.h **** 			 */
 439:../../LUFA/Drivers/USB/LowLevel/Endpoint.h **** 			static inline void Endpoint_ClearSETUP(void) ATTR_ALWAYS_INLINE;
 440:../../LUFA/Drivers/USB/LowLevel/Endpoint.h **** 			static inline void Endpoint_ClearSETUP(void)
 441:../../LUFA/Drivers/USB/LowLevel/Endpoint.h **** 			{
 442:../../LUFA/Drivers/USB/LowLevel/Endpoint.h **** 				UEINTX &= ~(1 << RXSTPI);
 443:../../LUFA/Drivers/USB/LowLevel/Endpoint.h **** 			}
 444:../../LUFA/Drivers/USB/LowLevel/Endpoint.h **** 			
 445:../../LUFA/Drivers/USB/LowLevel/Endpoint.h **** 			/** Sends an IN packet to the host on the currently selected endpoint, freeing up the endpoint f
 446:../../LUFA/Drivers/USB/LowLevel/Endpoint.h **** 			 *  next packet and switching to the alternative endpoint bank if double banked.
 447:../../LUFA/Drivers/USB/LowLevel/Endpoint.h **** 			 *
 448:../../LUFA/Drivers/USB/LowLevel/Endpoint.h **** 			 *  \ingroup Group_EndpointPacketManagement
 449:../../LUFA/Drivers/USB/LowLevel/Endpoint.h **** 			 */
 450:../../LUFA/Drivers/USB/LowLevel/Endpoint.h **** 			static inline void Endpoint_ClearIN(void) ATTR_ALWAYS_INLINE;
 451:../../LUFA/Drivers/USB/LowLevel/Endpoint.h **** 			static inline void Endpoint_ClearIN(void)
 452:../../LUFA/Drivers/USB/LowLevel/Endpoint.h **** 			{
 453:../../LUFA/Drivers/USB/LowLevel/Endpoint.h **** 				#if !defined(CONTROL_ONLY_DEVICE)
 454:../../LUFA/Drivers/USB/LowLevel/Endpoint.h **** 					UEINTX &= ~((1 << TXINI) | (1 << FIFOCON));
 455:../../LUFA/Drivers/USB/LowLevel/Endpoint.h **** 				#else
 456:../../LUFA/Drivers/USB/LowLevel/Endpoint.h **** 					UEINTX &= ~(1 << TXINI);
 457:../../LUFA/Drivers/USB/LowLevel/Endpoint.h **** 				#endif
 458:../../LUFA/Drivers/USB/LowLevel/Endpoint.h **** 			}
 459:../../LUFA/Drivers/USB/LowLevel/Endpoint.h **** 			
 460:../../LUFA/Drivers/USB/LowLevel/Endpoint.h **** 			/** Acknowledges an OUT packet to the host on the currently selected endpoint, freeing up the en
 461:../../LUFA/Drivers/USB/LowLevel/Endpoint.h **** 			 *  for the next packet and switching to the alternative endpoint bank if double banked.
 462:../../LUFA/Drivers/USB/LowLevel/Endpoint.h **** 			 *
 463:../../LUFA/Drivers/USB/LowLevel/Endpoint.h **** 			 *  \ingroup Group_EndpointPacketManagement
 464:../../LUFA/Drivers/USB/LowLevel/Endpoint.h **** 			 */
 465:../../LUFA/Drivers/USB/LowLevel/Endpoint.h **** 			static inline void Endpoint_ClearOUT(void) ATTR_ALWAYS_INLINE;
 466:../../LUFA/Drivers/USB/LowLevel/Endpoint.h **** 			static inline void Endpoint_ClearOUT(void)
 467:../../LUFA/Drivers/USB/LowLevel/Endpoint.h **** 			{
 468:../../LUFA/Drivers/USB/LowLevel/Endpoint.h **** 				#if !defined(CONTROL_ONLY_DEVICE)
 469:../../LUFA/Drivers/USB/LowLevel/Endpoint.h **** 					UEINTX &= ~((1 << RXOUTI) | (1 << FIFOCON));
 470:../../LUFA/Drivers/USB/LowLevel/Endpoint.h **** 				#else
 471:../../LUFA/Drivers/USB/LowLevel/Endpoint.h **** 					UEINTX &= ~(1 << RXOUTI);	
 472:../../LUFA/Drivers/USB/LowLevel/Endpoint.h **** 				#endif
 473:../../LUFA/Drivers/USB/LowLevel/Endpoint.h **** 			}
 474:../../LUFA/Drivers/USB/LowLevel/Endpoint.h **** 			
 475:../../LUFA/Drivers/USB/LowLevel/Endpoint.h **** 			/** Stalls the current endpoint, indicating to the host that a logical problem occurred with the
 476:../../LUFA/Drivers/USB/LowLevel/Endpoint.h **** 			 *  indicated endpoint and that the current transfer sequence should be aborted. This provides a
 477:../../LUFA/Drivers/USB/LowLevel/Endpoint.h **** 			 *  way for devices to indicate invalid commands to the host so that the current transfer can be
 478:../../LUFA/Drivers/USB/LowLevel/Endpoint.h **** 			 *  aborted and the host can begin its own recovery sequence.
 479:../../LUFA/Drivers/USB/LowLevel/Endpoint.h **** 			 *
 480:../../LUFA/Drivers/USB/LowLevel/Endpoint.h **** 			 *  The currently selected endpoint remains stalled until either the \ref Endpoint_ClearStall() 
 481:../../LUFA/Drivers/USB/LowLevel/Endpoint.h **** 			 *  is called, or the host issues a CLEAR FEATURE request to the device for the currently select
 482:../../LUFA/Drivers/USB/LowLevel/Endpoint.h **** 			 *  endpoint.
 483:../../LUFA/Drivers/USB/LowLevel/Endpoint.h **** 			 *
 484:../../LUFA/Drivers/USB/LowLevel/Endpoint.h **** 			 *  \ingroup Group_EndpointPacketManagement
 485:../../LUFA/Drivers/USB/LowLevel/Endpoint.h **** 			 */
 486:../../LUFA/Drivers/USB/LowLevel/Endpoint.h **** 			static inline void Endpoint_StallTransaction(void) ATTR_ALWAYS_INLINE;
 487:../../LUFA/Drivers/USB/LowLevel/Endpoint.h **** 			static inline void Endpoint_StallTransaction(void)
 488:../../LUFA/Drivers/USB/LowLevel/Endpoint.h **** 			{
 489:../../LUFA/Drivers/USB/LowLevel/Endpoint.h **** 				UECONX |= (1 << STALLRQ);
 490:../../LUFA/Drivers/USB/LowLevel/Endpoint.h **** 			}
 491:../../LUFA/Drivers/USB/LowLevel/Endpoint.h **** 			
 492:../../LUFA/Drivers/USB/LowLevel/Endpoint.h **** 			/** Clears the STALL condition on the currently selected endpoint.
 493:../../LUFA/Drivers/USB/LowLevel/Endpoint.h **** 			 *
 494:../../LUFA/Drivers/USB/LowLevel/Endpoint.h **** 			 *  \ingroup Group_EndpointPacketManagement
 495:../../LUFA/Drivers/USB/LowLevel/Endpoint.h **** 			 */
 496:../../LUFA/Drivers/USB/LowLevel/Endpoint.h **** 			static inline void Endpoint_ClearStall(void) ATTR_ALWAYS_INLINE;
 497:../../LUFA/Drivers/USB/LowLevel/Endpoint.h **** 			static inline void Endpoint_ClearStall(void)
 498:../../LUFA/Drivers/USB/LowLevel/Endpoint.h **** 			{
 499:../../LUFA/Drivers/USB/LowLevel/Endpoint.h **** 				UECONX |= (1 << STALLRQC);
 500:../../LUFA/Drivers/USB/LowLevel/Endpoint.h **** 			}
 501:../../LUFA/Drivers/USB/LowLevel/Endpoint.h **** 			
 502:../../LUFA/Drivers/USB/LowLevel/Endpoint.h **** 			/** Determines if the currently selected endpoint is stalled, false otherwise.
 503:../../LUFA/Drivers/USB/LowLevel/Endpoint.h **** 			 *
 504:../../LUFA/Drivers/USB/LowLevel/Endpoint.h **** 			 *  \ingroup Group_EndpointPacketManagement
 505:../../LUFA/Drivers/USB/LowLevel/Endpoint.h **** 			 *
 506:../../LUFA/Drivers/USB/LowLevel/Endpoint.h **** 			 *  \return Boolean true if the currently selected endpoint is stalled, false otherwise.
 507:../../LUFA/Drivers/USB/LowLevel/Endpoint.h **** 			 */
 508:../../LUFA/Drivers/USB/LowLevel/Endpoint.h **** 			static inline bool Endpoint_IsStalled(void) ATTR_WARN_UNUSED_RESULT ATTR_ALWAYS_INLINE;
 509:../../LUFA/Drivers/USB/LowLevel/Endpoint.h **** 			static inline bool Endpoint_IsStalled(void)
 510:../../LUFA/Drivers/USB/LowLevel/Endpoint.h **** 			{
 511:../../LUFA/Drivers/USB/LowLevel/Endpoint.h **** 				return ((UECONX & (1 << STALLRQ)) ? true : false);
 512:../../LUFA/Drivers/USB/LowLevel/Endpoint.h **** 			}
 513:../../LUFA/Drivers/USB/LowLevel/Endpoint.h **** 			
 514:../../LUFA/Drivers/USB/LowLevel/Endpoint.h **** 			/** Resets the data toggle of the currently selected endpoint. */
 515:../../LUFA/Drivers/USB/LowLevel/Endpoint.h **** 			static inline void Endpoint_ResetDataToggle(void) ATTR_ALWAYS_INLINE;
 516:../../LUFA/Drivers/USB/LowLevel/Endpoint.h **** 			static inline void Endpoint_ResetDataToggle(void)
 517:../../LUFA/Drivers/USB/LowLevel/Endpoint.h **** 			{
 518:../../LUFA/Drivers/USB/LowLevel/Endpoint.h **** 				UECONX |= (1 << RSTDT);
 519:../../LUFA/Drivers/USB/LowLevel/Endpoint.h **** 			}
 520:../../LUFA/Drivers/USB/LowLevel/Endpoint.h **** 			
 521:../../LUFA/Drivers/USB/LowLevel/Endpoint.h **** 			/** Determines the currently selected endpoint's direction.
 522:../../LUFA/Drivers/USB/LowLevel/Endpoint.h **** 			 *
 523:../../LUFA/Drivers/USB/LowLevel/Endpoint.h **** 			 *  \return The currently selected endpoint's direction, as a ENDPOINT_DIR_* mask.
 524:../../LUFA/Drivers/USB/LowLevel/Endpoint.h **** 			 */
 525:../../LUFA/Drivers/USB/LowLevel/Endpoint.h **** 			static inline uint8_t Endpoint_GetEndpointDirection(void) ATTR_WARN_UNUSED_RESULT ATTR_ALWAYS_IN
 526:../../LUFA/Drivers/USB/LowLevel/Endpoint.h **** 			static inline uint8_t Endpoint_GetEndpointDirection(void)
 527:../../LUFA/Drivers/USB/LowLevel/Endpoint.h **** 			{
 528:../../LUFA/Drivers/USB/LowLevel/Endpoint.h **** 				return (UECFG0X & ENDPOINT_DIR_IN);
 529:../../LUFA/Drivers/USB/LowLevel/Endpoint.h **** 			}
 530:../../LUFA/Drivers/USB/LowLevel/Endpoint.h **** 
 531:../../LUFA/Drivers/USB/LowLevel/Endpoint.h **** 			/** Sets the direction of the currently selected endpoint.
 532:../../LUFA/Drivers/USB/LowLevel/Endpoint.h **** 			 *
 533:../../LUFA/Drivers/USB/LowLevel/Endpoint.h **** 			 *  \param[in] DirectionMask  New endpoint direction, as a ENDPOINT_DIR_* mask.
 534:../../LUFA/Drivers/USB/LowLevel/Endpoint.h **** 			 */
 535:../../LUFA/Drivers/USB/LowLevel/Endpoint.h **** 			static inline void Endpoint_SetEndpointDirection(const uint8_t DirectionMask) ATTR_ALWAYS_INLINE
 536:../../LUFA/Drivers/USB/LowLevel/Endpoint.h **** 			static inline void Endpoint_SetEndpointDirection(const uint8_t DirectionMask)
 537:../../LUFA/Drivers/USB/LowLevel/Endpoint.h **** 			{
 538:../../LUFA/Drivers/USB/LowLevel/Endpoint.h **** 				UECFG0X = ((UECFG0X & ~ENDPOINT_DIR_IN) | DirectionMask);
 539:../../LUFA/Drivers/USB/LowLevel/Endpoint.h **** 			}
 540:../../LUFA/Drivers/USB/LowLevel/Endpoint.h **** 
 541:../../LUFA/Drivers/USB/LowLevel/Endpoint.h **** 			/** Reads one byte from the currently selected endpoint's bank, for OUT direction endpoints.
 542:../../LUFA/Drivers/USB/LowLevel/Endpoint.h **** 			 *
 543:../../LUFA/Drivers/USB/LowLevel/Endpoint.h **** 			 *  \ingroup Group_EndpointPrimitiveRW
 544:../../LUFA/Drivers/USB/LowLevel/Endpoint.h **** 			 *
 545:../../LUFA/Drivers/USB/LowLevel/Endpoint.h **** 			 *  \return Next byte in the currently selected endpoint's FIFO buffer.
 546:../../LUFA/Drivers/USB/LowLevel/Endpoint.h **** 			 */
 547:../../LUFA/Drivers/USB/LowLevel/Endpoint.h **** 			static inline uint8_t Endpoint_Read_Byte(void) ATTR_WARN_UNUSED_RESULT ATTR_ALWAYS_INLINE;
 548:../../LUFA/Drivers/USB/LowLevel/Endpoint.h **** 			static inline uint8_t Endpoint_Read_Byte(void)
 549:../../LUFA/Drivers/USB/LowLevel/Endpoint.h **** 			{
 550:../../LUFA/Drivers/USB/LowLevel/Endpoint.h **** 				return UEDATX;
 551:../../LUFA/Drivers/USB/LowLevel/Endpoint.h **** 			}
 552:../../LUFA/Drivers/USB/LowLevel/Endpoint.h **** 
 553:../../LUFA/Drivers/USB/LowLevel/Endpoint.h **** 			/** Writes one byte from the currently selected endpoint's bank, for IN direction endpoints.
 554:../../LUFA/Drivers/USB/LowLevel/Endpoint.h **** 			 *
 555:../../LUFA/Drivers/USB/LowLevel/Endpoint.h **** 			 *  \ingroup Group_EndpointPrimitiveRW
 556:../../LUFA/Drivers/USB/LowLevel/Endpoint.h **** 			 *
 557:../../LUFA/Drivers/USB/LowLevel/Endpoint.h **** 			 *  \param[in] Byte  Next byte to write into the the currently selected endpoint's FIFO buffer.
 558:../../LUFA/Drivers/USB/LowLevel/Endpoint.h **** 			 */
 559:../../LUFA/Drivers/USB/LowLevel/Endpoint.h **** 			static inline void Endpoint_Write_Byte(const uint8_t Byte) ATTR_ALWAYS_INLINE;
 560:../../LUFA/Drivers/USB/LowLevel/Endpoint.h **** 			static inline void Endpoint_Write_Byte(const uint8_t Byte)
 561:../../LUFA/Drivers/USB/LowLevel/Endpoint.h **** 			{
 562:../../LUFA/Drivers/USB/LowLevel/Endpoint.h **** 				UEDATX = Byte;
 563:../../LUFA/Drivers/USB/LowLevel/Endpoint.h **** 			}
 564:../../LUFA/Drivers/USB/LowLevel/Endpoint.h **** 
 565:../../LUFA/Drivers/USB/LowLevel/Endpoint.h **** 			/** Discards one byte from the currently selected endpoint's bank, for OUT direction endpoints.
 566:../../LUFA/Drivers/USB/LowLevel/Endpoint.h **** 			 *
 567:../../LUFA/Drivers/USB/LowLevel/Endpoint.h **** 			 *  \ingroup Group_EndpointPrimitiveRW
 568:../../LUFA/Drivers/USB/LowLevel/Endpoint.h **** 			 */
 569:../../LUFA/Drivers/USB/LowLevel/Endpoint.h **** 			static inline void Endpoint_Discard_Byte(void) ATTR_ALWAYS_INLINE;
 570:../../LUFA/Drivers/USB/LowLevel/Endpoint.h **** 			static inline void Endpoint_Discard_Byte(void)
 571:../../LUFA/Drivers/USB/LowLevel/Endpoint.h **** 			{
 572:../../LUFA/Drivers/USB/LowLevel/Endpoint.h **** 				uint8_t Dummy;
 573:../../LUFA/Drivers/USB/LowLevel/Endpoint.h **** 				
 574:../../LUFA/Drivers/USB/LowLevel/Endpoint.h **** 				Dummy = UEDATX;
 575:../../LUFA/Drivers/USB/LowLevel/Endpoint.h **** 			}
 576:../../LUFA/Drivers/USB/LowLevel/Endpoint.h **** 			
 577:../../LUFA/Drivers/USB/LowLevel/Endpoint.h **** 			/** Reads two bytes from the currently selected endpoint's bank in little endian format, for OUT
 578:../../LUFA/Drivers/USB/LowLevel/Endpoint.h **** 			 *  direction endpoints.
 579:../../LUFA/Drivers/USB/LowLevel/Endpoint.h **** 			 *
 580:../../LUFA/Drivers/USB/LowLevel/Endpoint.h **** 			 *  \ingroup Group_EndpointPrimitiveRW
 581:../../LUFA/Drivers/USB/LowLevel/Endpoint.h **** 			 *
 582:../../LUFA/Drivers/USB/LowLevel/Endpoint.h **** 			 *  \return Next word in the currently selected endpoint's FIFO buffer.
 583:../../LUFA/Drivers/USB/LowLevel/Endpoint.h **** 			 */
 584:../../LUFA/Drivers/USB/LowLevel/Endpoint.h **** 			static inline uint16_t Endpoint_Read_Word_LE(void) ATTR_WARN_UNUSED_RESULT ATTR_ALWAYS_INLINE;
 585:../../LUFA/Drivers/USB/LowLevel/Endpoint.h **** 			static inline uint16_t Endpoint_Read_Word_LE(void)
 586:../../LUFA/Drivers/USB/LowLevel/Endpoint.h **** 			{
 587:../../LUFA/Drivers/USB/LowLevel/Endpoint.h **** 				union
 588:../../LUFA/Drivers/USB/LowLevel/Endpoint.h **** 				{
 589:../../LUFA/Drivers/USB/LowLevel/Endpoint.h **** 					uint16_t Word;
 590:../../LUFA/Drivers/USB/LowLevel/Endpoint.h **** 					uint8_t  Bytes[2];
 591:../../LUFA/Drivers/USB/LowLevel/Endpoint.h **** 				} Data;
 592:../../LUFA/Drivers/USB/LowLevel/Endpoint.h **** 				
 593:../../LUFA/Drivers/USB/LowLevel/Endpoint.h **** 				Data.Bytes[0] = UEDATX;
 594:../../LUFA/Drivers/USB/LowLevel/Endpoint.h **** 				Data.Bytes[1] = UEDATX;
 595:../../LUFA/Drivers/USB/LowLevel/Endpoint.h **** 			
 596:../../LUFA/Drivers/USB/LowLevel/Endpoint.h **** 				return Data.Word;
 597:../../LUFA/Drivers/USB/LowLevel/Endpoint.h **** 			}
 598:../../LUFA/Drivers/USB/LowLevel/Endpoint.h **** 
 599:../../LUFA/Drivers/USB/LowLevel/Endpoint.h **** 			/** Reads two bytes from the currently selected endpoint's bank in big endian format, for OUT
 600:../../LUFA/Drivers/USB/LowLevel/Endpoint.h **** 			 *  direction endpoints.
 601:../../LUFA/Drivers/USB/LowLevel/Endpoint.h **** 			 *
 602:../../LUFA/Drivers/USB/LowLevel/Endpoint.h **** 			 *  \ingroup Group_EndpointPrimitiveRW
 603:../../LUFA/Drivers/USB/LowLevel/Endpoint.h **** 			 *
 604:../../LUFA/Drivers/USB/LowLevel/Endpoint.h **** 			 *  \return Next word in the currently selected endpoint's FIFO buffer.
 605:../../LUFA/Drivers/USB/LowLevel/Endpoint.h **** 			 */
 606:../../LUFA/Drivers/USB/LowLevel/Endpoint.h **** 			static inline uint16_t Endpoint_Read_Word_BE(void) ATTR_WARN_UNUSED_RESULT ATTR_ALWAYS_INLINE;
 607:../../LUFA/Drivers/USB/LowLevel/Endpoint.h **** 			static inline uint16_t Endpoint_Read_Word_BE(void)
 608:../../LUFA/Drivers/USB/LowLevel/Endpoint.h **** 			{
 609:../../LUFA/Drivers/USB/LowLevel/Endpoint.h **** 				union
 610:../../LUFA/Drivers/USB/LowLevel/Endpoint.h **** 				{
 611:../../LUFA/Drivers/USB/LowLevel/Endpoint.h **** 					uint16_t Word;
 612:../../LUFA/Drivers/USB/LowLevel/Endpoint.h **** 					uint8_t  Bytes[2];
 613:../../LUFA/Drivers/USB/LowLevel/Endpoint.h **** 				} Data;
 614:../../LUFA/Drivers/USB/LowLevel/Endpoint.h **** 				
 615:../../LUFA/Drivers/USB/LowLevel/Endpoint.h **** 				Data.Bytes[1] = UEDATX;
 616:../../LUFA/Drivers/USB/LowLevel/Endpoint.h **** 				Data.Bytes[0] = UEDATX;
 617:../../LUFA/Drivers/USB/LowLevel/Endpoint.h **** 			
 618:../../LUFA/Drivers/USB/LowLevel/Endpoint.h **** 				return Data.Word;
 619:../../LUFA/Drivers/USB/LowLevel/Endpoint.h **** 			}
 620:../../LUFA/Drivers/USB/LowLevel/Endpoint.h **** 
 621:../../LUFA/Drivers/USB/LowLevel/Endpoint.h **** 			/** Writes two bytes to the currently selected endpoint's bank in little endian format, for IN
 622:../../LUFA/Drivers/USB/LowLevel/Endpoint.h **** 			 *  direction endpoints.
 623:../../LUFA/Drivers/USB/LowLevel/Endpoint.h **** 			 *
 624:../../LUFA/Drivers/USB/LowLevel/Endpoint.h **** 			 *  \ingroup Group_EndpointPrimitiveRW
 625:../../LUFA/Drivers/USB/LowLevel/Endpoint.h **** 			 *
 626:../../LUFA/Drivers/USB/LowLevel/Endpoint.h **** 			 *  \param[in] Word  Next word to write to the currently selected endpoint's FIFO buffer.
 627:../../LUFA/Drivers/USB/LowLevel/Endpoint.h **** 			 */
 628:../../LUFA/Drivers/USB/LowLevel/Endpoint.h **** 			static inline void Endpoint_Write_Word_LE(const uint16_t Word) ATTR_ALWAYS_INLINE;
 629:../../LUFA/Drivers/USB/LowLevel/Endpoint.h **** 			static inline void Endpoint_Write_Word_LE(const uint16_t Word)
 630:../../LUFA/Drivers/USB/LowLevel/Endpoint.h **** 			{
 631:../../LUFA/Drivers/USB/LowLevel/Endpoint.h **** 				UEDATX = (Word & 0xFF);
 632:../../LUFA/Drivers/USB/LowLevel/Endpoint.h **** 				UEDATX = (Word >> 8);
 633:../../LUFA/Drivers/USB/LowLevel/Endpoint.h **** 			}
 634:../../LUFA/Drivers/USB/LowLevel/Endpoint.h **** 			
 635:../../LUFA/Drivers/USB/LowLevel/Endpoint.h **** 			/** Writes two bytes to the currently selected endpoint's bank in big endian format, for IN
 636:../../LUFA/Drivers/USB/LowLevel/Endpoint.h **** 			 *  direction endpoints.
 637:../../LUFA/Drivers/USB/LowLevel/Endpoint.h **** 			 *
 638:../../LUFA/Drivers/USB/LowLevel/Endpoint.h **** 			 *  \ingroup Group_EndpointPrimitiveRW
 639:../../LUFA/Drivers/USB/LowLevel/Endpoint.h **** 			 *
 640:../../LUFA/Drivers/USB/LowLevel/Endpoint.h **** 			 *  \param[in] Word  Next word to write to the currently selected endpoint's FIFO buffer.
 641:../../LUFA/Drivers/USB/LowLevel/Endpoint.h **** 			 */
 642:../../LUFA/Drivers/USB/LowLevel/Endpoint.h **** 			static inline void Endpoint_Write_Word_BE(const uint16_t Word) ATTR_ALWAYS_INLINE;
 643:../../LUFA/Drivers/USB/LowLevel/Endpoint.h **** 			static inline void Endpoint_Write_Word_BE(const uint16_t Word)
 644:../../LUFA/Drivers/USB/LowLevel/Endpoint.h **** 			{
 645:../../LUFA/Drivers/USB/LowLevel/Endpoint.h **** 				UEDATX = (Word >> 8);
 646:../../LUFA/Drivers/USB/LowLevel/Endpoint.h **** 				UEDATX = (Word & 0xFF);
 647:../../LUFA/Drivers/USB/LowLevel/Endpoint.h **** 			}
 648:../../LUFA/Drivers/USB/LowLevel/Endpoint.h **** 
 649:../../LUFA/Drivers/USB/LowLevel/Endpoint.h **** 			/** Discards two bytes from the currently selected endpoint's bank, for OUT direction endpoints.
 650:../../LUFA/Drivers/USB/LowLevel/Endpoint.h **** 			 *
 651:../../LUFA/Drivers/USB/LowLevel/Endpoint.h **** 			 *  \ingroup Group_EndpointPrimitiveRW
 652:../../LUFA/Drivers/USB/LowLevel/Endpoint.h **** 			 */
 653:../../LUFA/Drivers/USB/LowLevel/Endpoint.h **** 			static inline void Endpoint_Discard_Word(void) ATTR_ALWAYS_INLINE;
 654:../../LUFA/Drivers/USB/LowLevel/Endpoint.h **** 			static inline void Endpoint_Discard_Word(void)
 655:../../LUFA/Drivers/USB/LowLevel/Endpoint.h **** 			{
 656:../../LUFA/Drivers/USB/LowLevel/Endpoint.h **** 				uint8_t Dummy;
 657:../../LUFA/Drivers/USB/LowLevel/Endpoint.h **** 				
 658:../../LUFA/Drivers/USB/LowLevel/Endpoint.h **** 				Dummy = UEDATX;
 659:../../LUFA/Drivers/USB/LowLevel/Endpoint.h **** 				Dummy = UEDATX;
 660:../../LUFA/Drivers/USB/LowLevel/Endpoint.h **** 			}
 661:../../LUFA/Drivers/USB/LowLevel/Endpoint.h **** 
 662:../../LUFA/Drivers/USB/LowLevel/Endpoint.h **** 			/** Reads four bytes from the currently selected endpoint's bank in little endian format, for OU
 663:../../LUFA/Drivers/USB/LowLevel/Endpoint.h **** 			 *  direction endpoints.
 664:../../LUFA/Drivers/USB/LowLevel/Endpoint.h **** 			 *
 665:../../LUFA/Drivers/USB/LowLevel/Endpoint.h **** 			 *  \ingroup Group_EndpointPrimitiveRW
 666:../../LUFA/Drivers/USB/LowLevel/Endpoint.h **** 			 *
 667:../../LUFA/Drivers/USB/LowLevel/Endpoint.h **** 			 *  \return Next double word in the currently selected endpoint's FIFO buffer.
 668:../../LUFA/Drivers/USB/LowLevel/Endpoint.h **** 			 */
 669:../../LUFA/Drivers/USB/LowLevel/Endpoint.h **** 			static inline uint32_t Endpoint_Read_DWord_LE(void) ATTR_WARN_UNUSED_RESULT ATTR_ALWAYS_INLINE;
 670:../../LUFA/Drivers/USB/LowLevel/Endpoint.h **** 			static inline uint32_t Endpoint_Read_DWord_LE(void)
 671:../../LUFA/Drivers/USB/LowLevel/Endpoint.h **** 			{
 672:../../LUFA/Drivers/USB/LowLevel/Endpoint.h **** 				union
 673:../../LUFA/Drivers/USB/LowLevel/Endpoint.h **** 				{
 674:../../LUFA/Drivers/USB/LowLevel/Endpoint.h **** 					uint32_t DWord;
 675:../../LUFA/Drivers/USB/LowLevel/Endpoint.h **** 					uint8_t  Bytes[4];
 676:../../LUFA/Drivers/USB/LowLevel/Endpoint.h **** 				} Data;
 677:../../LUFA/Drivers/USB/LowLevel/Endpoint.h **** 				
 678:../../LUFA/Drivers/USB/LowLevel/Endpoint.h **** 				Data.Bytes[0] = UEDATX;
 679:../../LUFA/Drivers/USB/LowLevel/Endpoint.h **** 				Data.Bytes[1] = UEDATX;
 680:../../LUFA/Drivers/USB/LowLevel/Endpoint.h **** 				Data.Bytes[2] = UEDATX;
 681:../../LUFA/Drivers/USB/LowLevel/Endpoint.h **** 				Data.Bytes[3] = UEDATX;
 682:../../LUFA/Drivers/USB/LowLevel/Endpoint.h **** 			
 683:../../LUFA/Drivers/USB/LowLevel/Endpoint.h **** 				return Data.DWord;
 684:../../LUFA/Drivers/USB/LowLevel/Endpoint.h **** 			}
 685:../../LUFA/Drivers/USB/LowLevel/Endpoint.h **** 
 686:../../LUFA/Drivers/USB/LowLevel/Endpoint.h **** 			/** Reads four bytes from the currently selected endpoint's bank in big endian format, for OUT
 687:../../LUFA/Drivers/USB/LowLevel/Endpoint.h **** 			 *  direction endpoints.
 688:../../LUFA/Drivers/USB/LowLevel/Endpoint.h **** 			 *
 689:../../LUFA/Drivers/USB/LowLevel/Endpoint.h **** 			 *  \ingroup Group_EndpointPrimitiveRW
 690:../../LUFA/Drivers/USB/LowLevel/Endpoint.h **** 			 *
 691:../../LUFA/Drivers/USB/LowLevel/Endpoint.h **** 			 *  \return Next double word in the currently selected endpoint's FIFO buffer.
 692:../../LUFA/Drivers/USB/LowLevel/Endpoint.h **** 			 */
 693:../../LUFA/Drivers/USB/LowLevel/Endpoint.h **** 			static inline uint32_t Endpoint_Read_DWord_BE(void) ATTR_WARN_UNUSED_RESULT ATTR_ALWAYS_INLINE;
 694:../../LUFA/Drivers/USB/LowLevel/Endpoint.h **** 			static inline uint32_t Endpoint_Read_DWord_BE(void)
 695:../../LUFA/Drivers/USB/LowLevel/Endpoint.h **** 			{
 696:../../LUFA/Drivers/USB/LowLevel/Endpoint.h **** 				union
 697:../../LUFA/Drivers/USB/LowLevel/Endpoint.h **** 				{
 698:../../LUFA/Drivers/USB/LowLevel/Endpoint.h **** 					uint32_t DWord;
 699:../../LUFA/Drivers/USB/LowLevel/Endpoint.h **** 					uint8_t  Bytes[4];
 700:../../LUFA/Drivers/USB/LowLevel/Endpoint.h **** 				} Data;
 701:../../LUFA/Drivers/USB/LowLevel/Endpoint.h **** 				
 702:../../LUFA/Drivers/USB/LowLevel/Endpoint.h **** 				Data.Bytes[3] = UEDATX;
 703:../../LUFA/Drivers/USB/LowLevel/Endpoint.h **** 				Data.Bytes[2] = UEDATX;
 704:../../LUFA/Drivers/USB/LowLevel/Endpoint.h **** 				Data.Bytes[1] = UEDATX;
 705:../../LUFA/Drivers/USB/LowLevel/Endpoint.h **** 				Data.Bytes[0] = UEDATX;
 706:../../LUFA/Drivers/USB/LowLevel/Endpoint.h **** 			
 707:../../LUFA/Drivers/USB/LowLevel/Endpoint.h **** 				return Data.DWord;
 708:../../LUFA/Drivers/USB/LowLevel/Endpoint.h **** 			}
 709:../../LUFA/Drivers/USB/LowLevel/Endpoint.h **** 
 710:../../LUFA/Drivers/USB/LowLevel/Endpoint.h **** 			/** Writes four bytes to the currently selected endpoint's bank in little endian format, for IN
 711:../../LUFA/Drivers/USB/LowLevel/Endpoint.h **** 			 *  direction endpoints.
 712:../../LUFA/Drivers/USB/LowLevel/Endpoint.h **** 			 *
 713:../../LUFA/Drivers/USB/LowLevel/Endpoint.h **** 			 *  \ingroup Group_EndpointPrimitiveRW
 714:../../LUFA/Drivers/USB/LowLevel/Endpoint.h **** 			 *
 715:../../LUFA/Drivers/USB/LowLevel/Endpoint.h **** 			 *  \param[in] DWord  Next double word to write to the currently selected endpoint's FIFO buffer
 716:../../LUFA/Drivers/USB/LowLevel/Endpoint.h **** 			 */
 717:../../LUFA/Drivers/USB/LowLevel/Endpoint.h **** 			static inline void Endpoint_Write_DWord_LE(const uint32_t DWord) ATTR_ALWAYS_INLINE;
 718:../../LUFA/Drivers/USB/LowLevel/Endpoint.h **** 			static inline void Endpoint_Write_DWord_LE(const uint32_t DWord)
 719:../../LUFA/Drivers/USB/LowLevel/Endpoint.h **** 			{
 720:../../LUFA/Drivers/USB/LowLevel/Endpoint.h **** 				UEDATX = (DWord &  0xFF);
 721:../../LUFA/Drivers/USB/LowLevel/Endpoint.h **** 				UEDATX = (DWord >> 8);
 722:../../LUFA/Drivers/USB/LowLevel/Endpoint.h **** 				UEDATX = (DWord >> 16);
 723:../../LUFA/Drivers/USB/LowLevel/Endpoint.h **** 				UEDATX = (DWord >> 24);
 724:../../LUFA/Drivers/USB/LowLevel/Endpoint.h **** 			}
 725:../../LUFA/Drivers/USB/LowLevel/Endpoint.h **** 			
 726:../../LUFA/Drivers/USB/LowLevel/Endpoint.h **** 			/** Writes four bytes to the currently selected endpoint's bank in big endian format, for IN
 727:../../LUFA/Drivers/USB/LowLevel/Endpoint.h **** 			 *  direction endpoints.
 728:../../LUFA/Drivers/USB/LowLevel/Endpoint.h **** 			 *
 729:../../LUFA/Drivers/USB/LowLevel/Endpoint.h **** 			 *  \ingroup Group_EndpointPrimitiveRW
 730:../../LUFA/Drivers/USB/LowLevel/Endpoint.h **** 			 *
 731:../../LUFA/Drivers/USB/LowLevel/Endpoint.h **** 			 *  \param[in] DWord  Next double word to write to the currently selected endpoint's FIFO buffer
 732:../../LUFA/Drivers/USB/LowLevel/Endpoint.h **** 			 */
 733:../../LUFA/Drivers/USB/LowLevel/Endpoint.h **** 			static inline void Endpoint_Write_DWord_BE(const uint32_t DWord) ATTR_ALWAYS_INLINE;
 734:../../LUFA/Drivers/USB/LowLevel/Endpoint.h **** 			static inline void Endpoint_Write_DWord_BE(const uint32_t DWord)
 735:../../LUFA/Drivers/USB/LowLevel/Endpoint.h **** 			{
 736:../../LUFA/Drivers/USB/LowLevel/Endpoint.h **** 				UEDATX = (DWord >> 24);
 737:../../LUFA/Drivers/USB/LowLevel/Endpoint.h **** 				UEDATX = (DWord >> 16);
 738:../../LUFA/Drivers/USB/LowLevel/Endpoint.h **** 				UEDATX = (DWord >> 8);
 739:../../LUFA/Drivers/USB/LowLevel/Endpoint.h **** 				UEDATX = (DWord &  0xFF);
 740:../../LUFA/Drivers/USB/LowLevel/Endpoint.h **** 			}
 741:../../LUFA/Drivers/USB/LowLevel/Endpoint.h **** 
 742:../../LUFA/Drivers/USB/LowLevel/Endpoint.h **** 			/** Discards four bytes from the currently selected endpoint's bank, for OUT direction endpoints
 743:../../LUFA/Drivers/USB/LowLevel/Endpoint.h **** 			 *
 744:../../LUFA/Drivers/USB/LowLevel/Endpoint.h **** 			 *  \ingroup Group_EndpointPrimitiveRW
 745:../../LUFA/Drivers/USB/LowLevel/Endpoint.h **** 			 */
 746:../../LUFA/Drivers/USB/LowLevel/Endpoint.h **** 			static inline void Endpoint_Discard_DWord(void) ATTR_ALWAYS_INLINE;
 747:../../LUFA/Drivers/USB/LowLevel/Endpoint.h **** 			static inline void Endpoint_Discard_DWord(void)
 748:../../LUFA/Drivers/USB/LowLevel/Endpoint.h **** 			{
 749:../../LUFA/Drivers/USB/LowLevel/Endpoint.h **** 				uint8_t Dummy;
 750:../../LUFA/Drivers/USB/LowLevel/Endpoint.h **** 				
 751:../../LUFA/Drivers/USB/LowLevel/Endpoint.h **** 				Dummy = UEDATX;
 752:../../LUFA/Drivers/USB/LowLevel/Endpoint.h **** 				Dummy = UEDATX;
 753:../../LUFA/Drivers/USB/LowLevel/Endpoint.h **** 				Dummy = UEDATX;
 754:../../LUFA/Drivers/USB/LowLevel/Endpoint.h **** 				Dummy = UEDATX;
 755:../../LUFA/Drivers/USB/LowLevel/Endpoint.h **** 			}
 756:../../LUFA/Drivers/USB/LowLevel/Endpoint.h **** 
 757:../../LUFA/Drivers/USB/LowLevel/Endpoint.h **** 		/* External Variables: */
 758:../../LUFA/Drivers/USB/LowLevel/Endpoint.h **** 			/** Global indicating the maximum packet size of the default control endpoint located at address
 759:../../LUFA/Drivers/USB/LowLevel/Endpoint.h **** 			 *  0 in the device. This value is set to the value indicated in the device descriptor in the us
 760:../../LUFA/Drivers/USB/LowLevel/Endpoint.h **** 			 *  project once the USB interface is initialized into device mode.
 761:../../LUFA/Drivers/USB/LowLevel/Endpoint.h **** 			 *
 762:../../LUFA/Drivers/USB/LowLevel/Endpoint.h **** 			 *  If space is an issue, it is possible to fix this to a static value by defining the control
 763:../../LUFA/Drivers/USB/LowLevel/Endpoint.h **** 			 *  endpoint size in the FIXED_CONTROL_ENDPOINT_SIZE token passed to the compiler in the makefil
 764:../../LUFA/Drivers/USB/LowLevel/Endpoint.h **** 			 *  via the -D switch. When a fixed control endpoint size is used, the size is no longer dynamic
 765:../../LUFA/Drivers/USB/LowLevel/Endpoint.h **** 			 *  read from the descriptors at runtime and instead fixed to the given value. When used, it is
 766:../../LUFA/Drivers/USB/LowLevel/Endpoint.h **** 			 *  important that the descriptor control endpoint size value matches the size given as the
 767:../../LUFA/Drivers/USB/LowLevel/Endpoint.h **** 			 *  FIXED_CONTROL_ENDPOINT_SIZE token - it is recommended that the FIXED_CONTROL_ENDPOINT_SIZE t
 768:../../LUFA/Drivers/USB/LowLevel/Endpoint.h **** 			 *  be used in the descriptors to ensure this.
 769:../../LUFA/Drivers/USB/LowLevel/Endpoint.h **** 			 *
 770:../../LUFA/Drivers/USB/LowLevel/Endpoint.h **** 			 *  \note This variable should be treated as read-only in the user application, and never manual
 771:../../LUFA/Drivers/USB/LowLevel/Endpoint.h **** 			 *        changed in value.
 772:../../LUFA/Drivers/USB/LowLevel/Endpoint.h **** 			 */
 773:../../LUFA/Drivers/USB/LowLevel/Endpoint.h **** 			#if (!defined(FIXED_CONTROL_ENDPOINT_SIZE) || defined(__DOXYGEN__))
 774:../../LUFA/Drivers/USB/LowLevel/Endpoint.h **** 				extern uint8_t USB_ControlEndpointSize;
 775:../../LUFA/Drivers/USB/LowLevel/Endpoint.h **** 			#else
 776:../../LUFA/Drivers/USB/LowLevel/Endpoint.h **** 				#define USB_ControlEndpointSize FIXED_CONTROL_ENDPOINT_SIZE
 777:../../LUFA/Drivers/USB/LowLevel/Endpoint.h **** 			#endif
 778:../../LUFA/Drivers/USB/LowLevel/Endpoint.h **** 
 779:../../LUFA/Drivers/USB/LowLevel/Endpoint.h **** 		/* Function Prototypes: */
 780:../../LUFA/Drivers/USB/LowLevel/Endpoint.h **** 			#if !defined(NO_STREAM_CALLBACKS) || defined(__DOXYGEN__)
 781:../../LUFA/Drivers/USB/LowLevel/Endpoint.h **** 				#define __CALLBACK_PARAM     , StreamCallbackPtr_t Callback
 782:../../LUFA/Drivers/USB/LowLevel/Endpoint.h **** 			#else
 783:../../LUFA/Drivers/USB/LowLevel/Endpoint.h **** 				#define __CALLBACK_PARAM
 784:../../LUFA/Drivers/USB/LowLevel/Endpoint.h **** 			#endif
 785:../../LUFA/Drivers/USB/LowLevel/Endpoint.h **** 		
 786:../../LUFA/Drivers/USB/LowLevel/Endpoint.h **** 			/** Configures the specified endpoint number with the given endpoint type, direction, bank size
 787:../../LUFA/Drivers/USB/LowLevel/Endpoint.h **** 			 *  and banking mode. Endpoints should be allocated in ascending order by their address in the
 788:../../LUFA/Drivers/USB/LowLevel/Endpoint.h **** 			 *  device (i.e. endpoint 1 should be configured before endpoint 2 and so on) to prevent fragmen
 789:../../LUFA/Drivers/USB/LowLevel/Endpoint.h **** 			 *  of the USB FIFO memory.
 790:../../LUFA/Drivers/USB/LowLevel/Endpoint.h **** 			 *
 791:../../LUFA/Drivers/USB/LowLevel/Endpoint.h **** 			 *  The endpoint type may be one of the EP_TYPE_* macros listed in LowLevel.h and the direction
 792:../../LUFA/Drivers/USB/LowLevel/Endpoint.h **** 			 *  may be either \ref ENDPOINT_DIR_OUT or \ref ENDPOINT_DIR_IN.
 793:../../LUFA/Drivers/USB/LowLevel/Endpoint.h **** 			 *
 794:../../LUFA/Drivers/USB/LowLevel/Endpoint.h **** 			 *  The bank size must indicate the maximum packet size that the endpoint can handle. Different
 795:../../LUFA/Drivers/USB/LowLevel/Endpoint.h **** 			 *  endpoint numbers can handle different maximum packet sizes - refer to the chosen USB AVR's
 796:../../LUFA/Drivers/USB/LowLevel/Endpoint.h **** 			 *  datasheet to determine the maximum bank size for each endpoint.
 797:../../LUFA/Drivers/USB/LowLevel/Endpoint.h **** 			 *
 798:../../LUFA/Drivers/USB/LowLevel/Endpoint.h **** 			 *  The banking mode may be either \ref ENDPOINT_BANK_SINGLE or \ref ENDPOINT_BANK_DOUBLE.
 799:../../LUFA/Drivers/USB/LowLevel/Endpoint.h **** 			 *
 800:../../LUFA/Drivers/USB/LowLevel/Endpoint.h **** 			 *  \note The default control endpoint should not be manually configured by the user application
 801:../../LUFA/Drivers/USB/LowLevel/Endpoint.h **** 			 *        it is automatically configured by the library internally.
 802:../../LUFA/Drivers/USB/LowLevel/Endpoint.h **** 			 *        \n\n
 803:../../LUFA/Drivers/USB/LowLevel/Endpoint.h **** 			 *
 804:../../LUFA/Drivers/USB/LowLevel/Endpoint.h **** 			 *  \note This routine will select the specified endpoint, and the endpoint will remain selected
 805:../../LUFA/Drivers/USB/LowLevel/Endpoint.h **** 			 *        once the routine completes regardless of if the endpoint configuration succeeds.
 806:../../LUFA/Drivers/USB/LowLevel/Endpoint.h **** 			 *
 807:../../LUFA/Drivers/USB/LowLevel/Endpoint.h **** 			 *  \return Boolean true if the configuration succeeded, false otherwise.
 808:../../LUFA/Drivers/USB/LowLevel/Endpoint.h **** 			 */
 809:../../LUFA/Drivers/USB/LowLevel/Endpoint.h **** 			bool Endpoint_ConfigureEndpoint(const uint8_t  Number,
 810:../../LUFA/Drivers/USB/LowLevel/Endpoint.h **** 			                                const uint8_t Type,
 811:../../LUFA/Drivers/USB/LowLevel/Endpoint.h **** 			                                const uint8_t Direction,
 812:../../LUFA/Drivers/USB/LowLevel/Endpoint.h **** 			                                const uint16_t Size,
 813:../../LUFA/Drivers/USB/LowLevel/Endpoint.h **** 			                                const uint8_t Banks);
 814:../../LUFA/Drivers/USB/LowLevel/Endpoint.h **** 
 815:../../LUFA/Drivers/USB/LowLevel/Endpoint.h **** 			/** Spin-loops until the currently selected non-control endpoint is ready for the next packet of
 816:../../LUFA/Drivers/USB/LowLevel/Endpoint.h **** 			 *  to be read or written to it.
 817:../../LUFA/Drivers/USB/LowLevel/Endpoint.h **** 			 *
 818:../../LUFA/Drivers/USB/LowLevel/Endpoint.h **** 			 *  \note This routine should not be called on CONTROL type endpoints.
 819:../../LUFA/Drivers/USB/LowLevel/Endpoint.h **** 			 *
 820:../../LUFA/Drivers/USB/LowLevel/Endpoint.h **** 			 *  \ingroup Group_EndpointRW
 821:../../LUFA/Drivers/USB/LowLevel/Endpoint.h **** 			 *
 822:../../LUFA/Drivers/USB/LowLevel/Endpoint.h **** 			 *  \return A value from the \ref Endpoint_WaitUntilReady_ErrorCodes_t enum.
 823:../../LUFA/Drivers/USB/LowLevel/Endpoint.h **** 			 */
 824:../../LUFA/Drivers/USB/LowLevel/Endpoint.h **** 			uint8_t Endpoint_WaitUntilReady(void);
 825:../../LUFA/Drivers/USB/LowLevel/Endpoint.h **** 			
 826:../../LUFA/Drivers/USB/LowLevel/Endpoint.h **** 			/** Completes the status stage of a control transfer on a CONTROL type endpoint automatically,
 827:../../LUFA/Drivers/USB/LowLevel/Endpoint.h **** 			 *  with respect to the data direction. This is a convenience function which can be used to
 828:../../LUFA/Drivers/USB/LowLevel/Endpoint.h **** 			 *  simplify user control request handling.
 829:../../LUFA/Drivers/USB/LowLevel/Endpoint.h **** 			 */
 830:../../LUFA/Drivers/USB/LowLevel/Endpoint.h **** 			void Endpoint_ClearStatusStage(void);
 831:../../LUFA/Drivers/USB/LowLevel/Endpoint.h **** 
 832:../../LUFA/Drivers/USB/LowLevel/Endpoint.h **** 			/** Reads and discards the given number of bytes from the endpoint from the given buffer,
 833:../../LUFA/Drivers/USB/LowLevel/Endpoint.h **** 			 *  discarding fully read packets from the host as needed. The last packet is not automatically
 834:../../LUFA/Drivers/USB/LowLevel/Endpoint.h **** 			 *  discarded once the remaining bytes has been read; the user is responsible for manually
 835:../../LUFA/Drivers/USB/LowLevel/Endpoint.h **** 			 *  discarding the last packet from the host via the \ref Endpoint_ClearOUT() macro. Between
 836:../../LUFA/Drivers/USB/LowLevel/Endpoint.h **** 			 *  each USB packet, the given stream callback function is executed repeatedly until the next
 837:../../LUFA/Drivers/USB/LowLevel/Endpoint.h **** 			 *  packet is ready, allowing for early aborts of stream transfers.
 838:../../LUFA/Drivers/USB/LowLevel/Endpoint.h **** 			 *
 839:../../LUFA/Drivers/USB/LowLevel/Endpoint.h **** 			 *	The callback routine should be created according to the information in \ref Group_StreamCallb
 840:../../LUFA/Drivers/USB/LowLevel/Endpoint.h **** 			 *  If the token NO_STREAM_CALLBACKS is passed via the -D option to the compiler, stream callbac
 841:../../LUFA/Drivers/USB/LowLevel/Endpoint.h **** 			 *  disabled and this function has the Callback parameter omitted.
 842:../../LUFA/Drivers/USB/LowLevel/Endpoint.h **** 			 *
 843:../../LUFA/Drivers/USB/LowLevel/Endpoint.h **** 			 *  \note This routine should not be used on CONTROL type endpoints.
 844:../../LUFA/Drivers/USB/LowLevel/Endpoint.h **** 			 *
 845:../../LUFA/Drivers/USB/LowLevel/Endpoint.h **** 			 *  \ingroup Group_EndpointStreamRW
 846:../../LUFA/Drivers/USB/LowLevel/Endpoint.h **** 			 *
 847:../../LUFA/Drivers/USB/LowLevel/Endpoint.h **** 			 *  \param[in] Length    Number of bytes to send via the currently selected endpoint.
 848:../../LUFA/Drivers/USB/LowLevel/Endpoint.h **** 			 *  \param[in] Callback  Name of a callback routine to call between successive USB packet transf
 849:../../LUFA/Drivers/USB/LowLevel/Endpoint.h **** 			 *
 850:../../LUFA/Drivers/USB/LowLevel/Endpoint.h **** 			 *  \return A value from the \ref Endpoint_Stream_RW_ErrorCodes_t enum.
 851:../../LUFA/Drivers/USB/LowLevel/Endpoint.h **** 			 */
 852:../../LUFA/Drivers/USB/LowLevel/Endpoint.h **** 			uint8_t Endpoint_Discard_Stream(uint16_t Length
 853:../../LUFA/Drivers/USB/LowLevel/Endpoint.h **** 			                                __CALLBACK_PARAM);
 854:../../LUFA/Drivers/USB/LowLevel/Endpoint.h **** 
 855:../../LUFA/Drivers/USB/LowLevel/Endpoint.h **** 			/** Writes the given number of bytes to the endpoint from the given buffer in little endian,
 856:../../LUFA/Drivers/USB/LowLevel/Endpoint.h **** 			 *  sending full packets to the host as needed. The last packet filled is not automatically sent
 857:../../LUFA/Drivers/USB/LowLevel/Endpoint.h **** 			 *  the user is responsible for manually sending the last written packet to the host via the
 858:../../LUFA/Drivers/USB/LowLevel/Endpoint.h **** 			 *  \ref Endpoint_ClearIN() macro. Between each USB packet, the given stream callback function
 859:../../LUFA/Drivers/USB/LowLevel/Endpoint.h **** 			 *  is executed repeatedly until the endpoint is ready to accept the next packet, allowing for e
 860:../../LUFA/Drivers/USB/LowLevel/Endpoint.h **** 			 *  aborts of stream transfers.
 861:../../LUFA/Drivers/USB/LowLevel/Endpoint.h **** 			 *
 862:../../LUFA/Drivers/USB/LowLevel/Endpoint.h **** 			 *	The callback routine should be created according to the information in \ref Group_StreamCallb
 863:../../LUFA/Drivers/USB/LowLevel/Endpoint.h **** 			 *  If the token NO_STREAM_CALLBACKS is passed via the -D option to the compiler, stream callbac
 864:../../LUFA/Drivers/USB/LowLevel/Endpoint.h **** 			 *  disabled and this function has the Callback parameter omitted.
 865:../../LUFA/Drivers/USB/LowLevel/Endpoint.h **** 			 *
 866:../../LUFA/Drivers/USB/LowLevel/Endpoint.h **** 			 *  \note This routine should not be used on CONTROL type endpoints.
 867:../../LUFA/Drivers/USB/LowLevel/Endpoint.h **** 			 *
 868:../../LUFA/Drivers/USB/LowLevel/Endpoint.h **** 			 *  \ingroup Group_EndpointStreamRW
 869:../../LUFA/Drivers/USB/LowLevel/Endpoint.h **** 			 *
 870:../../LUFA/Drivers/USB/LowLevel/Endpoint.h **** 			 *  \param[in] Buffer    Pointer to the source data buffer to read from.
 871:../../LUFA/Drivers/USB/LowLevel/Endpoint.h **** 			 *  \param[in] Length    Number of bytes to read for the currently selected endpoint into the bu
 872:../../LUFA/Drivers/USB/LowLevel/Endpoint.h **** 			 *  \param[in] Callback  Name of a callback routine to call between successive USB packet transf
 873:../../LUFA/Drivers/USB/LowLevel/Endpoint.h **** 			 *
 874:../../LUFA/Drivers/USB/LowLevel/Endpoint.h **** 			 *  \return A value from the \ref Endpoint_Stream_RW_ErrorCodes_t enum.
 875:../../LUFA/Drivers/USB/LowLevel/Endpoint.h **** 			 */
 876:../../LUFA/Drivers/USB/LowLevel/Endpoint.h **** 			uint8_t Endpoint_Write_Stream_LE(const void* Buffer,
 877:../../LUFA/Drivers/USB/LowLevel/Endpoint.h **** 			                                 uint16_t Length
 878:../../LUFA/Drivers/USB/LowLevel/Endpoint.h **** 			                                 __CALLBACK_PARAM) ATTR_NON_NULL_PTR_ARG(1);
 879:../../LUFA/Drivers/USB/LowLevel/Endpoint.h **** 
 880:../../LUFA/Drivers/USB/LowLevel/Endpoint.h **** 			/** EEPROM buffer source version of \ref Endpoint_Write_Stream_LE().
 881:../../LUFA/Drivers/USB/LowLevel/Endpoint.h **** 			 *
 882:../../LUFA/Drivers/USB/LowLevel/Endpoint.h **** 			 *  \ingroup Group_EndpointStreamRW
 883:../../LUFA/Drivers/USB/LowLevel/Endpoint.h **** 			 *
 884:../../LUFA/Drivers/USB/LowLevel/Endpoint.h **** 			 *  \param[in] Buffer    Pointer to the source data buffer to read from.
 885:../../LUFA/Drivers/USB/LowLevel/Endpoint.h **** 			 *  \param[in] Length    Number of bytes to read for the currently selected endpoint into the bu
 886:../../LUFA/Drivers/USB/LowLevel/Endpoint.h **** 			 *  \param[in] Callback  Name of a callback routine to call between successive USB packet transf
 887:../../LUFA/Drivers/USB/LowLevel/Endpoint.h **** 			 *
 888:../../LUFA/Drivers/USB/LowLevel/Endpoint.h **** 			 *  \return A value from the \ref Endpoint_Stream_RW_ErrorCodes_t enum.
 889:../../LUFA/Drivers/USB/LowLevel/Endpoint.h **** 			 */
 890:../../LUFA/Drivers/USB/LowLevel/Endpoint.h **** 			uint8_t Endpoint_Write_EStream_LE(const void* Buffer,
 891:../../LUFA/Drivers/USB/LowLevel/Endpoint.h **** 			                                  uint16_t Length
 892:../../LUFA/Drivers/USB/LowLevel/Endpoint.h **** 			                                  __CALLBACK_PARAM) ATTR_NON_NULL_PTR_ARG(1);
 893:../../LUFA/Drivers/USB/LowLevel/Endpoint.h **** 
 894:../../LUFA/Drivers/USB/LowLevel/Endpoint.h **** 			/** FLASH buffer source version of \ref Endpoint_Write_Stream_LE().
 895:../../LUFA/Drivers/USB/LowLevel/Endpoint.h **** 			 *
 896:../../LUFA/Drivers/USB/LowLevel/Endpoint.h **** 			 *  \pre The FLASH data must be located in the first 64KB of FLASH for this function to work cor
 897:../../LUFA/Drivers/USB/LowLevel/Endpoint.h **** 			 *
 898:../../LUFA/Drivers/USB/LowLevel/Endpoint.h **** 			 *  \ingroup Group_EndpointStreamRW
 899:../../LUFA/Drivers/USB/LowLevel/Endpoint.h **** 			 *
 900:../../LUFA/Drivers/USB/LowLevel/Endpoint.h **** 			 *  \param[in] Buffer    Pointer to the source data buffer to read from.
 901:../../LUFA/Drivers/USB/LowLevel/Endpoint.h **** 			 *  \param[in] Length    Number of bytes to read for the currently selected endpoint into the bu
 902:../../LUFA/Drivers/USB/LowLevel/Endpoint.h **** 			 *  \param[in] Callback  Name of a callback routine to call between successive USB packet transf
 903:../../LUFA/Drivers/USB/LowLevel/Endpoint.h **** 			 *
 904:../../LUFA/Drivers/USB/LowLevel/Endpoint.h **** 			 *  \return A value from the \ref Endpoint_Stream_RW_ErrorCodes_t enum.
 905:../../LUFA/Drivers/USB/LowLevel/Endpoint.h **** 			 */
 906:../../LUFA/Drivers/USB/LowLevel/Endpoint.h **** 			uint8_t Endpoint_Write_PStream_LE(const void* Buffer,
 907:../../LUFA/Drivers/USB/LowLevel/Endpoint.h **** 			                                  uint16_t Length
 908:../../LUFA/Drivers/USB/LowLevel/Endpoint.h **** 			                                  __CALLBACK_PARAM) ATTR_NON_NULL_PTR_ARG(1);
 909:../../LUFA/Drivers/USB/LowLevel/Endpoint.h **** 
 910:../../LUFA/Drivers/USB/LowLevel/Endpoint.h **** 			/** Writes the given number of bytes to the endpoint from the given buffer in big endian,
 911:../../LUFA/Drivers/USB/LowLevel/Endpoint.h **** 			 *  sending full packets to the host as needed. The last packet filled is not automatically sent
 912:../../LUFA/Drivers/USB/LowLevel/Endpoint.h **** 			 *  the user is responsible for manually sending the last written packet to the host via the
 913:../../LUFA/Drivers/USB/LowLevel/Endpoint.h **** 			 *  \ref Endpoint_ClearIN() macro. Between each USB packet, the given stream callback function
 914:../../LUFA/Drivers/USB/LowLevel/Endpoint.h **** 			 *  is executed repeatedly until the endpoint is ready to accept the next packet, allowing for e
 915:../../LUFA/Drivers/USB/LowLevel/Endpoint.h **** 			 *  aborts of stream transfers.
 916:../../LUFA/Drivers/USB/LowLevel/Endpoint.h **** 			 *
 917:../../LUFA/Drivers/USB/LowLevel/Endpoint.h **** 			 *	The callback routine should be created according to the information in \ref Group_StreamCallb
 918:../../LUFA/Drivers/USB/LowLevel/Endpoint.h **** 			 *  If the token NO_STREAM_CALLBACKS is passed via the -D option to the compiler, stream callbac
 919:../../LUFA/Drivers/USB/LowLevel/Endpoint.h **** 			 *  disabled and this function has the Callback parameter omitted.
 920:../../LUFA/Drivers/USB/LowLevel/Endpoint.h **** 			 *
 921:../../LUFA/Drivers/USB/LowLevel/Endpoint.h **** 			 *  \note This routine should not be used on CONTROL type endpoints.
 922:../../LUFA/Drivers/USB/LowLevel/Endpoint.h **** 			 *
 923:../../LUFA/Drivers/USB/LowLevel/Endpoint.h **** 			 *  \ingroup Group_EndpointStreamRW
 924:../../LUFA/Drivers/USB/LowLevel/Endpoint.h **** 			 *
 925:../../LUFA/Drivers/USB/LowLevel/Endpoint.h **** 			 *  \param[in] Buffer    Pointer to the source data buffer to read from.
 926:../../LUFA/Drivers/USB/LowLevel/Endpoint.h **** 			 *  \param[in] Length    Number of bytes to read for the currently selected endpoint into the bu
 927:../../LUFA/Drivers/USB/LowLevel/Endpoint.h **** 			 *  \param[in] Callback  Name of a callback routine to call between successive USB packet transf
 928:../../LUFA/Drivers/USB/LowLevel/Endpoint.h **** 			 *
 929:../../LUFA/Drivers/USB/LowLevel/Endpoint.h **** 			 *  \return A value from the \ref Endpoint_Stream_RW_ErrorCodes_t enum.
 930:../../LUFA/Drivers/USB/LowLevel/Endpoint.h **** 			 */
 931:../../LUFA/Drivers/USB/LowLevel/Endpoint.h **** 			uint8_t Endpoint_Write_Stream_BE(const void* Buffer,
 932:../../LUFA/Drivers/USB/LowLevel/Endpoint.h **** 			                                 uint16_t Length
 933:../../LUFA/Drivers/USB/LowLevel/Endpoint.h **** 			                                 __CALLBACK_PARAM) ATTR_NON_NULL_PTR_ARG(1);
 934:../../LUFA/Drivers/USB/LowLevel/Endpoint.h **** 
 935:../../LUFA/Drivers/USB/LowLevel/Endpoint.h **** 			/** EEPROM buffer source version of \ref Endpoint_Write_Stream_BE().
 936:../../LUFA/Drivers/USB/LowLevel/Endpoint.h **** 			 *
 937:../../LUFA/Drivers/USB/LowLevel/Endpoint.h **** 			 *  \ingroup Group_EndpointStreamRW
 938:../../LUFA/Drivers/USB/LowLevel/Endpoint.h **** 			 *
 939:../../LUFA/Drivers/USB/LowLevel/Endpoint.h **** 			 *  \param[in] Buffer    Pointer to the source data buffer to read from.
 940:../../LUFA/Drivers/USB/LowLevel/Endpoint.h **** 			 *  \param[in] Length    Number of bytes to read for the currently selected endpoint into the bu
 941:../../LUFA/Drivers/USB/LowLevel/Endpoint.h **** 			 *  \param[in] Callback  Name of a callback routine to call between successive USB packet transf
 942:../../LUFA/Drivers/USB/LowLevel/Endpoint.h **** 			 *
 943:../../LUFA/Drivers/USB/LowLevel/Endpoint.h **** 			 *  \return A value from the \ref Endpoint_Stream_RW_ErrorCodes_t enum.
 944:../../LUFA/Drivers/USB/LowLevel/Endpoint.h **** 			 */
 945:../../LUFA/Drivers/USB/LowLevel/Endpoint.h **** 			uint8_t Endpoint_Write_EStream_BE(const void* Buffer,
 946:../../LUFA/Drivers/USB/LowLevel/Endpoint.h **** 			                                  uint16_t Length
 947:../../LUFA/Drivers/USB/LowLevel/Endpoint.h **** 			                                  __CALLBACK_PARAM) ATTR_NON_NULL_PTR_ARG(1);
 948:../../LUFA/Drivers/USB/LowLevel/Endpoint.h **** 
 949:../../LUFA/Drivers/USB/LowLevel/Endpoint.h **** 			/** FLASH buffer source version of \ref Endpoint_Write_Stream_BE().
 950:../../LUFA/Drivers/USB/LowLevel/Endpoint.h **** 			 *
 951:../../LUFA/Drivers/USB/LowLevel/Endpoint.h **** 			 *  \pre The FLASH data must be located in the first 64KB of FLASH for this function to work cor
 952:../../LUFA/Drivers/USB/LowLevel/Endpoint.h **** 			 *
 953:../../LUFA/Drivers/USB/LowLevel/Endpoint.h **** 			 *  \ingroup Group_EndpointStreamRW
 954:../../LUFA/Drivers/USB/LowLevel/Endpoint.h **** 			 *
 955:../../LUFA/Drivers/USB/LowLevel/Endpoint.h **** 			 *  \param[in] Buffer    Pointer to the source data buffer to read from.
 956:../../LUFA/Drivers/USB/LowLevel/Endpoint.h **** 			 *  \param[in] Length    Number of bytes to read for the currently selected endpoint into the bu
 957:../../LUFA/Drivers/USB/LowLevel/Endpoint.h **** 			 *  \param[in] Callback  Name of a callback routine to call between successive USB packet transf
 958:../../LUFA/Drivers/USB/LowLevel/Endpoint.h **** 			 *
 959:../../LUFA/Drivers/USB/LowLevel/Endpoint.h **** 			 *  \return A value from the \ref Endpoint_Stream_RW_ErrorCodes_t enum.
 960:../../LUFA/Drivers/USB/LowLevel/Endpoint.h **** 			 */
 961:../../LUFA/Drivers/USB/LowLevel/Endpoint.h **** 			uint8_t Endpoint_Write_PStream_BE(const void* Buffer,
 962:../../LUFA/Drivers/USB/LowLevel/Endpoint.h **** 			                                  uint16_t Length
 963:../../LUFA/Drivers/USB/LowLevel/Endpoint.h **** 			                                  __CALLBACK_PARAM) ATTR_NON_NULL_PTR_ARG(1);
 964:../../LUFA/Drivers/USB/LowLevel/Endpoint.h **** 
 965:../../LUFA/Drivers/USB/LowLevel/Endpoint.h **** 			/** Reads the given number of bytes from the endpoint from the given buffer in little endian,
 966:../../LUFA/Drivers/USB/LowLevel/Endpoint.h **** 			 *  discarding fully read packets from the host as needed. The last packet is not automatically
 967:../../LUFA/Drivers/USB/LowLevel/Endpoint.h **** 			 *  discarded once the remaining bytes has been read; the user is responsible for manually
 968:../../LUFA/Drivers/USB/LowLevel/Endpoint.h **** 			 *  discarding the last packet from the host via the \ref Endpoint_ClearOUT() macro. Between
 969:../../LUFA/Drivers/USB/LowLevel/Endpoint.h **** 			 *  each USB packet, the given stream callback function is executed repeatedly until the endpoin
 970:../../LUFA/Drivers/USB/LowLevel/Endpoint.h **** 			 *  is ready to accept the next packet, allowing for early aborts of stream transfers.
 971:../../LUFA/Drivers/USB/LowLevel/Endpoint.h **** 			 *
 972:../../LUFA/Drivers/USB/LowLevel/Endpoint.h **** 			 *	The callback routine should be created according to the information in \ref Group_StreamCallb
 973:../../LUFA/Drivers/USB/LowLevel/Endpoint.h **** 			 *  If the token NO_STREAM_CALLBACKS is passed via the -D option to the compiler, stream callbac
 974:../../LUFA/Drivers/USB/LowLevel/Endpoint.h **** 			 *  disabled and this function has the Callback parameter omitted.
 975:../../LUFA/Drivers/USB/LowLevel/Endpoint.h **** 			 *
 976:../../LUFA/Drivers/USB/LowLevel/Endpoint.h **** 			 *  \note This routine should not be used on CONTROL type endpoints.
 977:../../LUFA/Drivers/USB/LowLevel/Endpoint.h **** 			 *
 978:../../LUFA/Drivers/USB/LowLevel/Endpoint.h **** 			 *  \ingroup Group_EndpointStreamRW
 979:../../LUFA/Drivers/USB/LowLevel/Endpoint.h **** 			 *
 980:../../LUFA/Drivers/USB/LowLevel/Endpoint.h **** 			 *  \param[out] Buffer    Pointer to the destination data buffer to write to.
 981:../../LUFA/Drivers/USB/LowLevel/Endpoint.h **** 			 *  \param[in]  Length    Number of bytes to send via the currently selected endpoint.
 982:../../LUFA/Drivers/USB/LowLevel/Endpoint.h **** 			 *  \param[in]  Callback  Name of a callback routine to call between successive USB packet trans
 983:../../LUFA/Drivers/USB/LowLevel/Endpoint.h **** 			 *
 984:../../LUFA/Drivers/USB/LowLevel/Endpoint.h **** 			 *  \return A value from the \ref Endpoint_Stream_RW_ErrorCodes_t enum.
 985:../../LUFA/Drivers/USB/LowLevel/Endpoint.h **** 			 */
 986:../../LUFA/Drivers/USB/LowLevel/Endpoint.h **** 			uint8_t Endpoint_Read_Stream_LE(void* Buffer,
 987:../../LUFA/Drivers/USB/LowLevel/Endpoint.h **** 			                                uint16_t Length
 988:../../LUFA/Drivers/USB/LowLevel/Endpoint.h **** 			                                __CALLBACK_PARAM) ATTR_NON_NULL_PTR_ARG(1);
 989:../../LUFA/Drivers/USB/LowLevel/Endpoint.h **** 
 990:../../LUFA/Drivers/USB/LowLevel/Endpoint.h **** 			/** EEPROM buffer source version of \ref Endpoint_Read_Stream_LE().
 991:../../LUFA/Drivers/USB/LowLevel/Endpoint.h **** 			 *
 992:../../LUFA/Drivers/USB/LowLevel/Endpoint.h **** 			 *  \ingroup Group_EndpointStreamRW
 993:../../LUFA/Drivers/USB/LowLevel/Endpoint.h **** 			 *
 994:../../LUFA/Drivers/USB/LowLevel/Endpoint.h **** 			 *  \param[out] Buffer    Pointer to the destination data buffer to write to, located in EEPROM 
 995:../../LUFA/Drivers/USB/LowLevel/Endpoint.h **** 			 *  \param[in]  Length    Number of bytes to send via the currently selected endpoint.
 996:../../LUFA/Drivers/USB/LowLevel/Endpoint.h **** 			 *  \param[in]  Callback  Name of a callback routine to call between successive USB packet trans
 997:../../LUFA/Drivers/USB/LowLevel/Endpoint.h **** 			 *
 998:../../LUFA/Drivers/USB/LowLevel/Endpoint.h **** 			 *  \return A value from the \ref Endpoint_Stream_RW_ErrorCodes_t enum.
 999:../../LUFA/Drivers/USB/LowLevel/Endpoint.h **** 			 */
1000:../../LUFA/Drivers/USB/LowLevel/Endpoint.h **** 			uint8_t Endpoint_Read_EStream_LE(void* Buffer,
1001:../../LUFA/Drivers/USB/LowLevel/Endpoint.h **** 			                                 uint16_t Length
1002:../../LUFA/Drivers/USB/LowLevel/Endpoint.h **** 			                                 __CALLBACK_PARAM) ATTR_NON_NULL_PTR_ARG(1);
1003:../../LUFA/Drivers/USB/LowLevel/Endpoint.h **** 			
1004:../../LUFA/Drivers/USB/LowLevel/Endpoint.h **** 			/** Reads the given number of bytes from the endpoint from the given buffer in big endian,
1005:../../LUFA/Drivers/USB/LowLevel/Endpoint.h **** 			 *  discarding fully read packets from the host as needed. The last packet is not automatically
1006:../../LUFA/Drivers/USB/LowLevel/Endpoint.h **** 			 *  discarded once the remaining bytes has been read; the user is responsible for manually
1007:../../LUFA/Drivers/USB/LowLevel/Endpoint.h **** 			 *  discarding the last packet from the host via the \ref Endpoint_ClearOUT() macro. Between
1008:../../LUFA/Drivers/USB/LowLevel/Endpoint.h **** 			 *  each USB packet, the given stream callback function is executed repeatedly until the endpoin
1009:../../LUFA/Drivers/USB/LowLevel/Endpoint.h **** 			 *  is ready to accept the next packet, allowing for early aborts of stream transfers.
1010:../../LUFA/Drivers/USB/LowLevel/Endpoint.h **** 			 *
1011:../../LUFA/Drivers/USB/LowLevel/Endpoint.h **** 			 *	The callback routine should be created according to the information in \ref Group_StreamCallb
1012:../../LUFA/Drivers/USB/LowLevel/Endpoint.h **** 			 *  If the token NO_STREAM_CALLBACKS is passed via the -D option to the compiler, stream callbac
1013:../../LUFA/Drivers/USB/LowLevel/Endpoint.h **** 			 *  disabled and this function has the Callback parameter omitted.
1014:../../LUFA/Drivers/USB/LowLevel/Endpoint.h **** 			 *
1015:../../LUFA/Drivers/USB/LowLevel/Endpoint.h **** 			 *  \note This routine should not be used on CONTROL type endpoints.
1016:../../LUFA/Drivers/USB/LowLevel/Endpoint.h **** 			 *
1017:../../LUFA/Drivers/USB/LowLevel/Endpoint.h **** 			 *  \ingroup Group_EndpointStreamRW
1018:../../LUFA/Drivers/USB/LowLevel/Endpoint.h **** 			 *
1019:../../LUFA/Drivers/USB/LowLevel/Endpoint.h **** 			 *  \param[out] Buffer    Pointer to the destination data buffer to write to.
1020:../../LUFA/Drivers/USB/LowLevel/Endpoint.h **** 			 *  \param[in]  Length    Number of bytes to send via the currently selected endpoint.
1021:../../LUFA/Drivers/USB/LowLevel/Endpoint.h **** 			 *  \param[in]  Callback  Name of a callback routine to call between successive USB packet trans
1022:../../LUFA/Drivers/USB/LowLevel/Endpoint.h **** 			 *
1023:../../LUFA/Drivers/USB/LowLevel/Endpoint.h **** 			 *  \return A value from the \ref Endpoint_Stream_RW_ErrorCodes_t enum.
1024:../../LUFA/Drivers/USB/LowLevel/Endpoint.h **** 			 */
1025:../../LUFA/Drivers/USB/LowLevel/Endpoint.h **** 			uint8_t Endpoint_Read_Stream_BE(void* Buffer,
1026:../../LUFA/Drivers/USB/LowLevel/Endpoint.h **** 			                                uint16_t Length
1027:../../LUFA/Drivers/USB/LowLevel/Endpoint.h **** 			                                __CALLBACK_PARAM) ATTR_NON_NULL_PTR_ARG(1);
1028:../../LUFA/Drivers/USB/LowLevel/Endpoint.h **** 
1029:../../LUFA/Drivers/USB/LowLevel/Endpoint.h **** 			/** EEPROM buffer source version of \ref Endpoint_Read_Stream_BE().
1030:../../LUFA/Drivers/USB/LowLevel/Endpoint.h **** 			 *
1031:../../LUFA/Drivers/USB/LowLevel/Endpoint.h **** 			 *  \ingroup Group_EndpointStreamRW
1032:../../LUFA/Drivers/USB/LowLevel/Endpoint.h **** 			 *
1033:../../LUFA/Drivers/USB/LowLevel/Endpoint.h **** 			 *  \param[out] Buffer    Pointer to the destination data buffer to write to, located in EEPROM 
1034:../../LUFA/Drivers/USB/LowLevel/Endpoint.h **** 			 *  \param[in]  Length    Number of bytes to send via the currently selected endpoint.
1035:../../LUFA/Drivers/USB/LowLevel/Endpoint.h **** 			 *  \param[in]  Callback  Name of a callback routine to call between successive USB packet trans
1036:../../LUFA/Drivers/USB/LowLevel/Endpoint.h **** 			 *
1037:../../LUFA/Drivers/USB/LowLevel/Endpoint.h **** 			 *  \return A value from the \ref Endpoint_Stream_RW_ErrorCodes_t enum.
1038:../../LUFA/Drivers/USB/LowLevel/Endpoint.h **** 			 */
1039:../../LUFA/Drivers/USB/LowLevel/Endpoint.h **** 			uint8_t Endpoint_Read_EStream_BE(void* Buffer,
1040:../../LUFA/Drivers/USB/LowLevel/Endpoint.h **** 			                                 uint16_t Length
1041:../../LUFA/Drivers/USB/LowLevel/Endpoint.h **** 			                                 __CALLBACK_PARAM) ATTR_NON_NULL_PTR_ARG(1);
1042:../../LUFA/Drivers/USB/LowLevel/Endpoint.h **** 
1043:../../LUFA/Drivers/USB/LowLevel/Endpoint.h **** 			/** Writes the given number of bytes to the CONTROL type endpoint from the given buffer in littl
1044:../../LUFA/Drivers/USB/LowLevel/Endpoint.h **** 			 *  sending full packets to the host as needed. The host OUT acknowledgement is not automaticall
1045:../../LUFA/Drivers/USB/LowLevel/Endpoint.h **** 			 *  in both failure and success states; the user is responsible for manually clearing the setup 
1046:../../LUFA/Drivers/USB/LowLevel/Endpoint.h **** 			 *  finalize the transfer via the \ref Endpoint_ClearOUT() macro.
1047:../../LUFA/Drivers/USB/LowLevel/Endpoint.h **** 			 *
1048:../../LUFA/Drivers/USB/LowLevel/Endpoint.h **** 			 *  \note This function automatically clears the control transfer's status stage. Do not manuall
1049:../../LUFA/Drivers/USB/LowLevel/Endpoint.h **** 			 *        to clear the status stage when using this routine in a control transaction.
1050:../../LUFA/Drivers/USB/LowLevel/Endpoint.h **** 			 *        \n\n
1051:../../LUFA/Drivers/USB/LowLevel/Endpoint.h **** 			 *
1052:../../LUFA/Drivers/USB/LowLevel/Endpoint.h **** 			 *  \note This routine should only be used on CONTROL type endpoints.
1053:../../LUFA/Drivers/USB/LowLevel/Endpoint.h **** 			 *
1054:../../LUFA/Drivers/USB/LowLevel/Endpoint.h **** 			 *  \warning Unlike the standard stream read/write commands, the control stream commands cannot 
1055:../../LUFA/Drivers/USB/LowLevel/Endpoint.h **** 			 *           together; i.e. the entire stream data must be read or written at the one time.
1056:../../LUFA/Drivers/USB/LowLevel/Endpoint.h **** 			 *
1057:../../LUFA/Drivers/USB/LowLevel/Endpoint.h **** 			 *  \ingroup Group_EndpointStreamRW
1058:../../LUFA/Drivers/USB/LowLevel/Endpoint.h **** 			 *
1059:../../LUFA/Drivers/USB/LowLevel/Endpoint.h **** 			 *  \param[in] Buffer  Pointer to the source data buffer to read from.
1060:../../LUFA/Drivers/USB/LowLevel/Endpoint.h **** 			 *  \param[in] Length  Number of bytes to read for the currently selected endpoint into the buff
1061:../../LUFA/Drivers/USB/LowLevel/Endpoint.h **** 			 *
1062:../../LUFA/Drivers/USB/LowLevel/Endpoint.h **** 			 *  \return A value from the \ref Endpoint_ControlStream_RW_ErrorCodes_t enum.
1063:../../LUFA/Drivers/USB/LowLevel/Endpoint.h **** 			 */
1064:../../LUFA/Drivers/USB/LowLevel/Endpoint.h **** 			uint8_t Endpoint_Write_Control_Stream_LE(const void* Buffer,
1065:../../LUFA/Drivers/USB/LowLevel/Endpoint.h **** 			                                         uint16_t Length) ATTR_NON_NULL_PTR_ARG(1);
1066:../../LUFA/Drivers/USB/LowLevel/Endpoint.h **** 
1067:../../LUFA/Drivers/USB/LowLevel/Endpoint.h **** 			/** EEPROM buffer source version of Endpoint_Write_Control_Stream_LE.
1068:../../LUFA/Drivers/USB/LowLevel/Endpoint.h **** 			 *
1069:../../LUFA/Drivers/USB/LowLevel/Endpoint.h **** 			 *  \note This function automatically clears the control transfer's status stage. Do not manuall
1070:../../LUFA/Drivers/USB/LowLevel/Endpoint.h **** 			 *        to clear the status stage when using this routine in a control transaction.
1071:../../LUFA/Drivers/USB/LowLevel/Endpoint.h **** 			 *        \n\n
1072:../../LUFA/Drivers/USB/LowLevel/Endpoint.h **** 			 *
1073:../../LUFA/Drivers/USB/LowLevel/Endpoint.h **** 			 *  \note This routine should only be used on CONTROL type endpoints.
1074:../../LUFA/Drivers/USB/LowLevel/Endpoint.h **** 			 *
1075:../../LUFA/Drivers/USB/LowLevel/Endpoint.h **** 			 *  \warning Unlike the standard stream read/write commands, the control stream commands cannot 
1076:../../LUFA/Drivers/USB/LowLevel/Endpoint.h **** 			 *           together; i.e. the entire stream data must be read or written at the one time.
1077:../../LUFA/Drivers/USB/LowLevel/Endpoint.h **** 			 *
1078:../../LUFA/Drivers/USB/LowLevel/Endpoint.h **** 			 *  \ingroup Group_EndpointStreamRW
1079:../../LUFA/Drivers/USB/LowLevel/Endpoint.h **** 			 *
1080:../../LUFA/Drivers/USB/LowLevel/Endpoint.h **** 			 *  \param[in] Buffer  Pointer to the source data buffer to read from.
1081:../../LUFA/Drivers/USB/LowLevel/Endpoint.h **** 			 *  \param[in] Length  Number of bytes to read for the currently selected endpoint into the buff
1082:../../LUFA/Drivers/USB/LowLevel/Endpoint.h **** 			 *
1083:../../LUFA/Drivers/USB/LowLevel/Endpoint.h **** 			 *  \return A value from the \ref Endpoint_ControlStream_RW_ErrorCodes_t enum.
1084:../../LUFA/Drivers/USB/LowLevel/Endpoint.h **** 			 */
1085:../../LUFA/Drivers/USB/LowLevel/Endpoint.h **** 			uint8_t Endpoint_Write_Control_EStream_LE(const void* Buffer,
1086:../../LUFA/Drivers/USB/LowLevel/Endpoint.h **** 			                                          uint16_t Length) ATTR_NON_NULL_PTR_ARG(1);
1087:../../LUFA/Drivers/USB/LowLevel/Endpoint.h **** 
1088:../../LUFA/Drivers/USB/LowLevel/Endpoint.h **** 			/** FLASH buffer source version of \ref Endpoint_Write_Control_Stream_LE().
1089:../../LUFA/Drivers/USB/LowLevel/Endpoint.h **** 			 *
1090:../../LUFA/Drivers/USB/LowLevel/Endpoint.h **** 			 *  \pre The FLASH data must be located in the first 64KB of FLASH for this function to work cor
1091:../../LUFA/Drivers/USB/LowLevel/Endpoint.h **** 			 *
1092:../../LUFA/Drivers/USB/LowLevel/Endpoint.h **** 			 *  \note This function automatically clears the control transfer's status stage. Do not manuall
1093:../../LUFA/Drivers/USB/LowLevel/Endpoint.h **** 			 *        to clear the status stage when using this routine in a control transaction.
1094:../../LUFA/Drivers/USB/LowLevel/Endpoint.h **** 			 *        \n\n
1095:../../LUFA/Drivers/USB/LowLevel/Endpoint.h **** 			 *
1096:../../LUFA/Drivers/USB/LowLevel/Endpoint.h **** 			 *  \note This routine should only be used on CONTROL type endpoints.
1097:../../LUFA/Drivers/USB/LowLevel/Endpoint.h **** 			 *
1098:../../LUFA/Drivers/USB/LowLevel/Endpoint.h **** 			 *  \warning Unlike the standard stream read/write commands, the control stream commands cannot 
1099:../../LUFA/Drivers/USB/LowLevel/Endpoint.h **** 			 *           together; i.e. the entire stream data must be read or written at the one time.
1100:../../LUFA/Drivers/USB/LowLevel/Endpoint.h **** 			 *
1101:../../LUFA/Drivers/USB/LowLevel/Endpoint.h **** 			 *  \ingroup Group_EndpointStreamRW
1102:../../LUFA/Drivers/USB/LowLevel/Endpoint.h **** 			 *
1103:../../LUFA/Drivers/USB/LowLevel/Endpoint.h **** 			 *  \param[in] Buffer  Pointer to the source data buffer to read from.
1104:../../LUFA/Drivers/USB/LowLevel/Endpoint.h **** 			 *  \param[in] Length  Number of bytes to read for the currently selected endpoint into the buff
1105:../../LUFA/Drivers/USB/LowLevel/Endpoint.h **** 			 *
1106:../../LUFA/Drivers/USB/LowLevel/Endpoint.h **** 			 *  \return A value from the \ref Endpoint_ControlStream_RW_ErrorCodes_t enum.
1107:../../LUFA/Drivers/USB/LowLevel/Endpoint.h **** 			 */
1108:../../LUFA/Drivers/USB/LowLevel/Endpoint.h **** 			uint8_t Endpoint_Write_Control_PStream_LE(const void* Buffer,
1109:../../LUFA/Drivers/USB/LowLevel/Endpoint.h **** 			                                          uint16_t Length) ATTR_NON_NULL_PTR_ARG(1);
1110:../../LUFA/Drivers/USB/LowLevel/Endpoint.h **** 
1111:../../LUFA/Drivers/USB/LowLevel/Endpoint.h **** 			/** Writes the given number of bytes to the CONTROL type endpoint from the given buffer in big e
1112:../../LUFA/Drivers/USB/LowLevel/Endpoint.h **** 			 *  sending full packets to the host as needed. The host OUT acknowledgement is not automaticall
1113:../../LUFA/Drivers/USB/LowLevel/Endpoint.h **** 			 *  in both failure and success states; the user is responsible for manually clearing the setup 
1114:../../LUFA/Drivers/USB/LowLevel/Endpoint.h **** 			 *  finalize the transfer via the \ref Endpoint_ClearOUT() macro.
1115:../../LUFA/Drivers/USB/LowLevel/Endpoint.h **** 			 *
1116:../../LUFA/Drivers/USB/LowLevel/Endpoint.h **** 			 *  \note This function automatically clears the control transfer's status stage. Do not manuall
1117:../../LUFA/Drivers/USB/LowLevel/Endpoint.h **** 			 *        to clear the status stage when using this routine in a control transaction.
1118:../../LUFA/Drivers/USB/LowLevel/Endpoint.h **** 			 *        \n\n
1119:../../LUFA/Drivers/USB/LowLevel/Endpoint.h **** 			 *
1120:../../LUFA/Drivers/USB/LowLevel/Endpoint.h **** 			 *  \note This routine should only be used on CONTROL type endpoints.
1121:../../LUFA/Drivers/USB/LowLevel/Endpoint.h **** 			 *
1122:../../LUFA/Drivers/USB/LowLevel/Endpoint.h **** 			 *  \warning Unlike the standard stream read/write commands, the control stream commands cannot 
1123:../../LUFA/Drivers/USB/LowLevel/Endpoint.h **** 			 *           together; i.e. the entire stream data must be read or written at the one time.
1124:../../LUFA/Drivers/USB/LowLevel/Endpoint.h **** 			 *
1125:../../LUFA/Drivers/USB/LowLevel/Endpoint.h **** 			 *  \ingroup Group_EndpointStreamRW
1126:../../LUFA/Drivers/USB/LowLevel/Endpoint.h **** 			 *
1127:../../LUFA/Drivers/USB/LowLevel/Endpoint.h **** 			 *  \param[in] Buffer  Pointer to the source data buffer to read from.
1128:../../LUFA/Drivers/USB/LowLevel/Endpoint.h **** 			 *  \param[in] Length  Number of bytes to read for the currently selected endpoint into the buff
1129:../../LUFA/Drivers/USB/LowLevel/Endpoint.h **** 			 *
1130:../../LUFA/Drivers/USB/LowLevel/Endpoint.h **** 			 *  \return A value from the \ref Endpoint_ControlStream_RW_ErrorCodes_t enum.
1131:../../LUFA/Drivers/USB/LowLevel/Endpoint.h **** 			 */
1132:../../LUFA/Drivers/USB/LowLevel/Endpoint.h **** 			uint8_t Endpoint_Write_Control_Stream_BE(const void* Buffer,
1133:../../LUFA/Drivers/USB/LowLevel/Endpoint.h **** 			                                         uint16_t Length) ATTR_NON_NULL_PTR_ARG(1);
1134:../../LUFA/Drivers/USB/LowLevel/Endpoint.h **** 
1135:../../LUFA/Drivers/USB/LowLevel/Endpoint.h **** 			/** EEPROM buffer source version of \ref Endpoint_Write_Control_Stream_BE().
1136:../../LUFA/Drivers/USB/LowLevel/Endpoint.h **** 			 *
1137:../../LUFA/Drivers/USB/LowLevel/Endpoint.h **** 			 *  \note This function automatically clears the control transfer's status stage. Do not manuall
1138:../../LUFA/Drivers/USB/LowLevel/Endpoint.h **** 			 *        to clear the status stage when using this routine in a control transaction.
1139:../../LUFA/Drivers/USB/LowLevel/Endpoint.h **** 			 *        \n\n
1140:../../LUFA/Drivers/USB/LowLevel/Endpoint.h **** 			 *
1141:../../LUFA/Drivers/USB/LowLevel/Endpoint.h **** 			 *  \note This routine should only be used on CONTROL type endpoints.
1142:../../LUFA/Drivers/USB/LowLevel/Endpoint.h **** 			 *
1143:../../LUFA/Drivers/USB/LowLevel/Endpoint.h **** 			 *  \warning Unlike the standard stream read/write commands, the control stream commands cannot 
1144:../../LUFA/Drivers/USB/LowLevel/Endpoint.h **** 			 *           together; i.e. the entire stream data must be read or written at the one time.
1145:../../LUFA/Drivers/USB/LowLevel/Endpoint.h **** 			 *
1146:../../LUFA/Drivers/USB/LowLevel/Endpoint.h **** 			 *  \ingroup Group_EndpointStreamRW
1147:../../LUFA/Drivers/USB/LowLevel/Endpoint.h **** 			 *
1148:../../LUFA/Drivers/USB/LowLevel/Endpoint.h **** 			 *  \param[in] Buffer  Pointer to the source data buffer to read from.
1149:../../LUFA/Drivers/USB/LowLevel/Endpoint.h **** 			 *  \param[in] Length  Number of bytes to read for the currently selected endpoint into the buff
1150:../../LUFA/Drivers/USB/LowLevel/Endpoint.h **** 			 *
1151:../../LUFA/Drivers/USB/LowLevel/Endpoint.h **** 			 *  \return A value from the \ref Endpoint_ControlStream_RW_ErrorCodes_t enum.
1152:../../LUFA/Drivers/USB/LowLevel/Endpoint.h **** 			 */
1153:../../LUFA/Drivers/USB/LowLevel/Endpoint.h **** 			uint8_t Endpoint_Write_Control_EStream_BE(const void* Buffer,
1154:../../LUFA/Drivers/USB/LowLevel/Endpoint.h **** 			                                          uint16_t Length) ATTR_NON_NULL_PTR_ARG(1);
1155:../../LUFA/Drivers/USB/LowLevel/Endpoint.h **** 
1156:../../LUFA/Drivers/USB/LowLevel/Endpoint.h **** 			/** FLASH buffer source version of \ref Endpoint_Write_Control_Stream_BE().
1157:../../LUFA/Drivers/USB/LowLevel/Endpoint.h **** 			 *
1158:../../LUFA/Drivers/USB/LowLevel/Endpoint.h **** 			 *  \pre The FLASH data must be located in the first 64KB of FLASH for this function to work cor
1159:../../LUFA/Drivers/USB/LowLevel/Endpoint.h **** 			 *
1160:../../LUFA/Drivers/USB/LowLevel/Endpoint.h **** 			 *  \note This function automatically clears the control transfer's status stage. Do not manuall
1161:../../LUFA/Drivers/USB/LowLevel/Endpoint.h **** 			 *        to clear the status stage when using this routine in a control transaction.
1162:../../LUFA/Drivers/USB/LowLevel/Endpoint.h **** 			 *        \n\n
1163:../../LUFA/Drivers/USB/LowLevel/Endpoint.h **** 			 *
1164:../../LUFA/Drivers/USB/LowLevel/Endpoint.h **** 			 *  \note This routine should only be used on CONTROL type endpoints.
1165:../../LUFA/Drivers/USB/LowLevel/Endpoint.h **** 			 *
1166:../../LUFA/Drivers/USB/LowLevel/Endpoint.h **** 			 *  \warning Unlike the standard stream read/write commands, the control stream commands cannot 
1167:../../LUFA/Drivers/USB/LowLevel/Endpoint.h **** 			 *           together; i.e. the entire stream data must be read or written at the one time.
1168:../../LUFA/Drivers/USB/LowLevel/Endpoint.h **** 			 *
1169:../../LUFA/Drivers/USB/LowLevel/Endpoint.h **** 			 *  \ingroup Group_EndpointStreamRW
1170:../../LUFA/Drivers/USB/LowLevel/Endpoint.h **** 			 *
1171:../../LUFA/Drivers/USB/LowLevel/Endpoint.h **** 			 *  \param[in] Buffer  Pointer to the source data buffer to read from.
1172:../../LUFA/Drivers/USB/LowLevel/Endpoint.h **** 			 *  \param[in] Length  Number of bytes to read for the currently selected endpoint into the buff
1173:../../LUFA/Drivers/USB/LowLevel/Endpoint.h **** 			 *
1174:../../LUFA/Drivers/USB/LowLevel/Endpoint.h **** 			 *  \return A value from the \ref Endpoint_ControlStream_RW_ErrorCodes_t enum.
1175:../../LUFA/Drivers/USB/LowLevel/Endpoint.h **** 			 */
1176:../../LUFA/Drivers/USB/LowLevel/Endpoint.h **** 			uint8_t Endpoint_Write_Control_PStream_BE(const void* Buffer,
1177:../../LUFA/Drivers/USB/LowLevel/Endpoint.h **** 			                                          uint16_t Length) ATTR_NON_NULL_PTR_ARG(1);
1178:../../LUFA/Drivers/USB/LowLevel/Endpoint.h **** 
1179:../../LUFA/Drivers/USB/LowLevel/Endpoint.h **** 			/** Reads the given number of bytes from the CONTROL endpoint from the given buffer in little en
1180:../../LUFA/Drivers/USB/LowLevel/Endpoint.h **** 			 *  discarding fully read packets from the host as needed. The device IN acknowledgement is not
1181:../../LUFA/Drivers/USB/LowLevel/Endpoint.h **** 			 *  automatically sent after success or failure states; the user is responsible for manually sen
1182:../../LUFA/Drivers/USB/LowLevel/Endpoint.h **** 			 *  setup IN to finalize the transfer via the \ref Endpoint_ClearIN() macro.
1183:../../LUFA/Drivers/USB/LowLevel/Endpoint.h **** 			 *
1184:../../LUFA/Drivers/USB/LowLevel/Endpoint.h **** 			 *  \note This function automatically clears the control transfer's status stage. Do not manuall
1185:../../LUFA/Drivers/USB/LowLevel/Endpoint.h **** 			 *        to clear the status stage when using this routine in a control transaction.
1186:../../LUFA/Drivers/USB/LowLevel/Endpoint.h **** 			 *        \n\n
1187:../../LUFA/Drivers/USB/LowLevel/Endpoint.h **** 			 *
1188:../../LUFA/Drivers/USB/LowLevel/Endpoint.h **** 			 *  \note This routine should only be used on CONTROL type endpoints.
1189:../../LUFA/Drivers/USB/LowLevel/Endpoint.h **** 			 *
1190:../../LUFA/Drivers/USB/LowLevel/Endpoint.h **** 			 *  \warning Unlike the standard stream read/write commands, the control stream commands cannot 
1191:../../LUFA/Drivers/USB/LowLevel/Endpoint.h **** 			 *           together; i.e. the entire stream data must be read or written at the one time.
1192:../../LUFA/Drivers/USB/LowLevel/Endpoint.h **** 			 *
1193:../../LUFA/Drivers/USB/LowLevel/Endpoint.h **** 			 *  \ingroup Group_EndpointStreamRW
1194:../../LUFA/Drivers/USB/LowLevel/Endpoint.h **** 			 *
1195:../../LUFA/Drivers/USB/LowLevel/Endpoint.h **** 			 *  \param[out] Buffer  Pointer to the destination data buffer to write to.
1196:../../LUFA/Drivers/USB/LowLevel/Endpoint.h **** 			 *  \param[in]  Length  Number of bytes to send via the currently selected endpoint.
1197:../../LUFA/Drivers/USB/LowLevel/Endpoint.h **** 			 *
1198:../../LUFA/Drivers/USB/LowLevel/Endpoint.h **** 			 *  \return A value from the \ref Endpoint_ControlStream_RW_ErrorCodes_t enum.
1199:../../LUFA/Drivers/USB/LowLevel/Endpoint.h **** 			 */
1200:../../LUFA/Drivers/USB/LowLevel/Endpoint.h **** 			uint8_t Endpoint_Read_Control_Stream_LE(void* Buffer,
1201:../../LUFA/Drivers/USB/LowLevel/Endpoint.h **** 			                                        uint16_t Length) ATTR_NON_NULL_PTR_ARG(1);
1202:../../LUFA/Drivers/USB/LowLevel/Endpoint.h **** 
1203:../../LUFA/Drivers/USB/LowLevel/Endpoint.h **** 			/** EEPROM buffer source version of \ref Endpoint_Read_Control_Stream_LE().
1204:../../LUFA/Drivers/USB/LowLevel/Endpoint.h **** 			 *
1205:../../LUFA/Drivers/USB/LowLevel/Endpoint.h **** 			 *  \note This function automatically clears the control transfer's status stage. Do not manuall
1206:../../LUFA/Drivers/USB/LowLevel/Endpoint.h **** 			 *        to clear the status stage when using this routine in a control transaction.
1207:../../LUFA/Drivers/USB/LowLevel/Endpoint.h **** 			 *        \n\n
1208:../../LUFA/Drivers/USB/LowLevel/Endpoint.h **** 			 *
1209:../../LUFA/Drivers/USB/LowLevel/Endpoint.h **** 			 *  \note This routine should only be used on CONTROL type endpoints.
1210:../../LUFA/Drivers/USB/LowLevel/Endpoint.h **** 			 *
1211:../../LUFA/Drivers/USB/LowLevel/Endpoint.h **** 			 *  \warning Unlike the standard stream read/write commands, the control stream commands cannot 
1212:../../LUFA/Drivers/USB/LowLevel/Endpoint.h **** 			 *           together; i.e. the entire stream data must be read or written at the one time.
1213:../../LUFA/Drivers/USB/LowLevel/Endpoint.h **** 			 *
1214:../../LUFA/Drivers/USB/LowLevel/Endpoint.h **** 			 *  \ingroup Group_EndpointStreamRW
1215:../../LUFA/Drivers/USB/LowLevel/Endpoint.h **** 			 *
1216:../../LUFA/Drivers/USB/LowLevel/Endpoint.h **** 			 *  \param[out] Buffer  Pointer to the destination data buffer to write to.
1217:../../LUFA/Drivers/USB/LowLevel/Endpoint.h **** 			 *  \param[in]  Length  Number of bytes to send via the currently selected endpoint.
1218:../../LUFA/Drivers/USB/LowLevel/Endpoint.h **** 			 *
1219:../../LUFA/Drivers/USB/LowLevel/Endpoint.h **** 			 *  \return A value from the \ref Endpoint_ControlStream_RW_ErrorCodes_t enum.
1220:../../LUFA/Drivers/USB/LowLevel/Endpoint.h **** 			 */
1221:../../LUFA/Drivers/USB/LowLevel/Endpoint.h **** 			uint8_t Endpoint_Read_Control_EStream_LE(void* Buffer,
1222:../../LUFA/Drivers/USB/LowLevel/Endpoint.h **** 			                                         uint16_t Length) ATTR_NON_NULL_PTR_ARG(1);
1223:../../LUFA/Drivers/USB/LowLevel/Endpoint.h **** 
1224:../../LUFA/Drivers/USB/LowLevel/Endpoint.h **** 			/** Reads the given number of bytes from the CONTROL endpoint from the given buffer in big endia
1225:../../LUFA/Drivers/USB/LowLevel/Endpoint.h **** 			 *  discarding fully read packets from the host as needed. The device IN acknowledgement is not
1226:../../LUFA/Drivers/USB/LowLevel/Endpoint.h **** 			 *  automatically sent after success or failure states; the user is responsible for manually sen
1227:../../LUFA/Drivers/USB/LowLevel/Endpoint.h **** 			 *  setup IN to finalize the transfer via the \ref Endpoint_ClearIN() macro.
1228:../../LUFA/Drivers/USB/LowLevel/Endpoint.h **** 			 *
1229:../../LUFA/Drivers/USB/LowLevel/Endpoint.h **** 			 *  \note This function automatically clears the control transfer's status stage. Do not manuall
1230:../../LUFA/Drivers/USB/LowLevel/Endpoint.h **** 			 *        to clear the status stage when using this routine in a control transaction.
1231:../../LUFA/Drivers/USB/LowLevel/Endpoint.h **** 			 *        \n\n
1232:../../LUFA/Drivers/USB/LowLevel/Endpoint.h **** 			 *
1233:../../LUFA/Drivers/USB/LowLevel/Endpoint.h **** 			 *  \note This routine should only be used on CONTROL type endpoints.
1234:../../LUFA/Drivers/USB/LowLevel/Endpoint.h **** 			 *
1235:../../LUFA/Drivers/USB/LowLevel/Endpoint.h **** 			 *  \warning Unlike the standard stream read/write commands, the control stream commands cannot 
1236:../../LUFA/Drivers/USB/LowLevel/Endpoint.h **** 			 *           together; i.e. the entire stream data must be read or written at the one time.
1237:../../LUFA/Drivers/USB/LowLevel/Endpoint.h **** 			 *
1238:../../LUFA/Drivers/USB/LowLevel/Endpoint.h **** 			 *  \ingroup Group_EndpointStreamRW
1239:../../LUFA/Drivers/USB/LowLevel/Endpoint.h **** 			 *
1240:../../LUFA/Drivers/USB/LowLevel/Endpoint.h **** 			 *  \param[out] Buffer  Pointer to the destination data buffer to write to.
1241:../../LUFA/Drivers/USB/LowLevel/Endpoint.h **** 			 *  \param[in]  Length  Number of bytes to send via the currently selected endpoint.
1242:../../LUFA/Drivers/USB/LowLevel/Endpoint.h **** 			 *
1243:../../LUFA/Drivers/USB/LowLevel/Endpoint.h **** 			 *  \return A value from the \ref Endpoint_ControlStream_RW_ErrorCodes_t enum.
1244:../../LUFA/Drivers/USB/LowLevel/Endpoint.h **** 			 */
1245:../../LUFA/Drivers/USB/LowLevel/Endpoint.h **** 			uint8_t Endpoint_Read_Control_Stream_BE(void* Buffer,
1246:../../LUFA/Drivers/USB/LowLevel/Endpoint.h **** 			                                        uint16_t Length) ATTR_NON_NULL_PTR_ARG(1);
1247:../../LUFA/Drivers/USB/LowLevel/Endpoint.h **** 			
1248:../../LUFA/Drivers/USB/LowLevel/Endpoint.h **** 			/** EEPROM buffer source version of \ref Endpoint_Read_Control_Stream_BE().
1249:../../LUFA/Drivers/USB/LowLevel/Endpoint.h **** 			 *
1250:../../LUFA/Drivers/USB/LowLevel/Endpoint.h **** 			 *  \note This function automatically clears the control transfer's status stage. Do not manuall
1251:../../LUFA/Drivers/USB/LowLevel/Endpoint.h **** 			 *        to clear the status stage when using this routine in a control transaction.
1252:../../LUFA/Drivers/USB/LowLevel/Endpoint.h **** 			 *        \n\n
1253:../../LUFA/Drivers/USB/LowLevel/Endpoint.h **** 			 *
1254:../../LUFA/Drivers/USB/LowLevel/Endpoint.h **** 			 *  \note This routine should only be used on CONTROL type endpoints.
1255:../../LUFA/Drivers/USB/LowLevel/Endpoint.h **** 			 *
1256:../../LUFA/Drivers/USB/LowLevel/Endpoint.h **** 			 *  \warning Unlike the standard stream read/write commands, the control stream commands cannot 
1257:../../LUFA/Drivers/USB/LowLevel/Endpoint.h **** 			 *           together; i.e. the entire stream data must be read or written at the one time.
1258:../../LUFA/Drivers/USB/LowLevel/Endpoint.h **** 			 *
1259:../../LUFA/Drivers/USB/LowLevel/Endpoint.h **** 			 *  \ingroup Group_EndpointStreamRW
1260:../../LUFA/Drivers/USB/LowLevel/Endpoint.h **** 			 *
1261:../../LUFA/Drivers/USB/LowLevel/Endpoint.h **** 			 *  \param[out] Buffer  Pointer to the destination data buffer to write to.
1262:../../LUFA/Drivers/USB/LowLevel/Endpoint.h **** 			 *  \param[in]  Length  Number of bytes to send via the currently selected endpoint.
1263:../../LUFA/Drivers/USB/LowLevel/Endpoint.h **** 			 *
1264:../../LUFA/Drivers/USB/LowLevel/Endpoint.h **** 			 *  \return A value from the \ref Endpoint_ControlStream_RW_ErrorCodes_t enum.
1265:../../LUFA/Drivers/USB/LowLevel/Endpoint.h **** 			 */
1266:../../LUFA/Drivers/USB/LowLevel/Endpoint.h **** 			uint8_t Endpoint_Read_Control_EStream_BE(void* Buffer,
1267:../../LUFA/Drivers/USB/LowLevel/Endpoint.h **** 			                                         uint16_t Length) ATTR_NON_NULL_PTR_ARG(1);
1268:../../LUFA/Drivers/USB/LowLevel/Endpoint.h **** 
1269:../../LUFA/Drivers/USB/LowLevel/Endpoint.h **** 	/* Private Interface - For use in library only: */
1270:../../LUFA/Drivers/USB/LowLevel/Endpoint.h **** 	#if !defined(__DOXYGEN__)
1271:../../LUFA/Drivers/USB/LowLevel/Endpoint.h **** 		/* Macros: */
1272:../../LUFA/Drivers/USB/LowLevel/Endpoint.h **** 			#define _ENDPOINT_GET_MAXSIZE(n)               _ENDPOINT_GET_MAXSIZE2(ENDPOINT_DETAILS_EP ## n)
1273:../../LUFA/Drivers/USB/LowLevel/Endpoint.h **** 			#define _ENDPOINT_GET_MAXSIZE2(details)        _ENDPOINT_GET_MAXSIZE3(details)
1274:../../LUFA/Drivers/USB/LowLevel/Endpoint.h **** 			#define _ENDPOINT_GET_MAXSIZE3(maxsize, db)    maxsize
1275:../../LUFA/Drivers/USB/LowLevel/Endpoint.h **** 
1276:../../LUFA/Drivers/USB/LowLevel/Endpoint.h **** 			#define _ENDPOINT_GET_DOUBLEBANK(n)            _ENDPOINT_GET_DOUBLEBANK2(ENDPOINT_DETAILS_EP ## 
1277:../../LUFA/Drivers/USB/LowLevel/Endpoint.h **** 			#define _ENDPOINT_GET_DOUBLEBANK2(details)     _ENDPOINT_GET_DOUBLEBANK3(details)
1278:../../LUFA/Drivers/USB/LowLevel/Endpoint.h **** 			#define _ENDPOINT_GET_DOUBLEBANK3(maxsize, db) db
1279:../../LUFA/Drivers/USB/LowLevel/Endpoint.h **** 			
1280:../../LUFA/Drivers/USB/LowLevel/Endpoint.h **** 			#if defined(USB_SERIES_4_AVR) || defined(USB_SERIES_6_AVR) || defined(USB_SERIES_7_AVR)
1281:../../LUFA/Drivers/USB/LowLevel/Endpoint.h **** 				#define ENDPOINT_DETAILS_EP0               64,  true
1282:../../LUFA/Drivers/USB/LowLevel/Endpoint.h **** 				#define ENDPOINT_DETAILS_EP1               256, true
1283:../../LUFA/Drivers/USB/LowLevel/Endpoint.h **** 				#define ENDPOINT_DETAILS_EP2               64,  true
1284:../../LUFA/Drivers/USB/LowLevel/Endpoint.h **** 				#define ENDPOINT_DETAILS_EP3               64,  true
1285:../../LUFA/Drivers/USB/LowLevel/Endpoint.h **** 				#define ENDPOINT_DETAILS_EP4               64,  true
1286:../../LUFA/Drivers/USB/LowLevel/Endpoint.h **** 				#define ENDPOINT_DETAILS_EP5               64,  true
1287:../../LUFA/Drivers/USB/LowLevel/Endpoint.h **** 				#define ENDPOINT_DETAILS_EP6               64,  true
1288:../../LUFA/Drivers/USB/LowLevel/Endpoint.h **** 			#else
1289:../../LUFA/Drivers/USB/LowLevel/Endpoint.h **** 				#define ENDPOINT_DETAILS_EP0               64,  true
1290:../../LUFA/Drivers/USB/LowLevel/Endpoint.h **** 				#define ENDPOINT_DETAILS_EP1               64,  false
1291:../../LUFA/Drivers/USB/LowLevel/Endpoint.h **** 				#define ENDPOINT_DETAILS_EP2               64,  false
1292:../../LUFA/Drivers/USB/LowLevel/Endpoint.h **** 				#define ENDPOINT_DETAILS_EP3               64,  true
1293:../../LUFA/Drivers/USB/LowLevel/Endpoint.h **** 				#define ENDPOINT_DETAILS_EP4               64,  true			
1294:../../LUFA/Drivers/USB/LowLevel/Endpoint.h **** 			#endif
1295:../../LUFA/Drivers/USB/LowLevel/Endpoint.h **** 
1296:../../LUFA/Drivers/USB/LowLevel/Endpoint.h **** 			#define Endpoint_ConfigureEndpoint(Number, Type, Direction, Size, Banks)                        
1297:../../LUFA/Drivers/USB/LowLevel/Endpoint.h **** 			                     (__builtin_constant_p(Size) ? Endpoint_ConfigureEndpointStatic((Number),   
1298:../../LUFA/Drivers/USB/LowLevel/Endpoint.h **** 			                                                                                    (Type),     
1299:../../LUFA/Drivers/USB/LowLevel/Endpoint.h **** 			                                                                                    (Direction),
1300:../../LUFA/Drivers/USB/LowLevel/Endpoint.h **** 			                                                                                    Size, Banks)
1301:../../LUFA/Drivers/USB/LowLevel/Endpoint.h **** 			                                                   Endpoint_ConfigureEndpointDynamic((Number),  
1302:../../LUFA/Drivers/USB/LowLevel/Endpoint.h **** 			                                                                                     (Type),    
1303:../../LUFA/Drivers/USB/LowLevel/Endpoint.h **** 			                                                                                     (Direction)
1304:../../LUFA/Drivers/USB/LowLevel/Endpoint.h **** 			                                                                                     Size, Banks
1305:../../LUFA/Drivers/USB/LowLevel/Endpoint.h **** 
1306:../../LUFA/Drivers/USB/LowLevel/Endpoint.h **** 		/* Function Prototypes: */
1307:../../LUFA/Drivers/USB/LowLevel/Endpoint.h **** 			void    Endpoint_ClearEndpoints(void);
1308:../../LUFA/Drivers/USB/LowLevel/Endpoint.h **** 			uint8_t Endpoint_BytesToEPSizeMaskDynamic(const uint16_t Size);
1309:../../LUFA/Drivers/USB/LowLevel/Endpoint.h **** 			bool    Endpoint_ConfigureEndpoint_Prv(const uint8_t Number,
1310:../../LUFA/Drivers/USB/LowLevel/Endpoint.h **** 			                                       const uint8_t UECFG0XData,
1311:../../LUFA/Drivers/USB/LowLevel/Endpoint.h **** 			                                       const uint8_t UECFG1XData);			
1312:../../LUFA/Drivers/USB/LowLevel/Endpoint.h **** 
1313:../../LUFA/Drivers/USB/LowLevel/Endpoint.h **** 		/* Inline Functions: */
1314:../../LUFA/Drivers/USB/LowLevel/Endpoint.h **** 			static inline uint8_t Endpoint_BytesToEPSizeMask(const uint16_t Bytes) ATTR_WARN_UNUSED_RESULT A
1315:../../LUFA/Drivers/USB/LowLevel/Endpoint.h **** 			static inline uint8_t Endpoint_BytesToEPSizeMask(const uint16_t Bytes)
1316:../../LUFA/Drivers/USB/LowLevel/Endpoint.h **** 			{
1317:../../LUFA/Drivers/USB/LowLevel/Endpoint.h **** 				uint8_t  MaskVal    = 0;
1318:../../LUFA/Drivers/USB/LowLevel/Endpoint.h **** 				uint16_t CheckBytes = 8;
  26               		.loc 2 1318 0
  27 0000 28E0      		ldi r18,lo8(8)
  28 0002 30E0      		ldi r19,0
1317:../../LUFA/Drivers/USB/LowLevel/Endpoint.h **** 				uint16_t CheckBytes = 8;
  29               		.loc 2 1317 0
  30 0004 40E0      		ldi r20,0
  31               	.LVL1:
  32               	.L2:
1319:../../LUFA/Drivers/USB/LowLevel/Endpoint.h **** 				
1320:../../LUFA/Drivers/USB/LowLevel/Endpoint.h **** 				while (CheckBytes < Bytes)
  33               		.loc 2 1320 0
  34 0006 2817      		cp r18,r24
  35 0008 3907      		cpc r19,r25
  36 000a 00F4      		brsh .L5
1321:../../LUFA/Drivers/USB/LowLevel/Endpoint.h **** 				{
1322:../../LUFA/Drivers/USB/LowLevel/Endpoint.h **** 					MaskVal++;
  37               		.loc 2 1322 0
  38 000c 4F5F      		subi r20,lo8(-(1))
  39               	.LVL2:
1323:../../LUFA/Drivers/USB/LowLevel/Endpoint.h **** 					CheckBytes <<= 1;
  40               		.loc 2 1323 0
  41 000e 220F      		lsl r18
  42 0010 331F      		rol r19
  43               	.LVL3:
  44 0012 00C0      		rjmp .L2
  45               	.L5:
  46               	.LBE260:
  47               	.LBE259:
  45:../../LUFA/Drivers/USB/LowLevel/Endpoint.c **** 	return Endpoint_BytesToEPSizeMask(Size);
  46:../../LUFA/Drivers/USB/LowLevel/Endpoint.c **** }
  48               		.loc 1 46 0
  49 0014 842F      		mov r24,r20
  50               	.LVL4:
  51 0016 8295      		swap r24
  52 0018 807F      		andi r24,lo8(-16)
  53 001a 0895      		ret
  54               		.cfi_endproc
  55               	.LFE64:
  57               		.section	.text.Endpoint_ConfigureEndpoint_Prv,"ax",@progbits
  58               	.global	Endpoint_ConfigureEndpoint_Prv
  60               	Endpoint_ConfigureEndpoint_Prv:
  61               	.LFB65:
  47:../../LUFA/Drivers/USB/LowLevel/Endpoint.c **** 
  48:../../LUFA/Drivers/USB/LowLevel/Endpoint.c **** bool Endpoint_ConfigureEndpoint_Prv(const uint8_t Number,
  49:../../LUFA/Drivers/USB/LowLevel/Endpoint.c ****                                     const uint8_t UECFG0XData,
  50:../../LUFA/Drivers/USB/LowLevel/Endpoint.c ****                                     const uint8_t UECFG1XData)
  51:../../LUFA/Drivers/USB/LowLevel/Endpoint.c **** {
  62               		.loc 1 51 0
  63               		.cfi_startproc
  64               	.LVL5:
  65               	/* prologue: function */
  66               	/* frame size = 0 */
  67               	/* stack size = 0 */
  68               	.L__stack_usage = 0
  69               	.LBB261:
  70               	.LBB262:
 299:../../LUFA/Drivers/USB/LowLevel/Endpoint.h **** 				#endif			
  71               		.loc 2 299 0
  72 0000 8093 E900 		sts 233,r24
  73               	.LBE262:
  74               	.LBE261:
  75               	.LBB263:
  76               	.LBB264:
 323:../../LUFA/Drivers/USB/LowLevel/Endpoint.h **** 			}
  77               		.loc 2 323 0
  78 0004 EBEE      		ldi r30,lo8(-21)
  79 0006 F0E0      		ldi r31,0
  80 0008 8081      		ld r24,Z
  81               	.LVL6:
  82 000a 8160      		ori r24,lo8(1)
  83 000c 8083      		st Z,r24
  84               	.LVL7:
  85               	.LBE264:
  86               	.LBE263:
  52:../../LUFA/Drivers/USB/LowLevel/Endpoint.c **** 	Endpoint_SelectEndpoint(Number);
  53:../../LUFA/Drivers/USB/LowLevel/Endpoint.c **** 	Endpoint_EnableEndpoint();
  54:../../LUFA/Drivers/USB/LowLevel/Endpoint.c **** 
  55:../../LUFA/Drivers/USB/LowLevel/Endpoint.c **** 	UECFG1X = 0;
  87               		.loc 1 55 0
  88 000e EDEE      		ldi r30,lo8(-19)
  89 0010 F0E0      		ldi r31,0
  90 0012 1082      		st Z,__zero_reg__
  56:../../LUFA/Drivers/USB/LowLevel/Endpoint.c **** 
  57:../../LUFA/Drivers/USB/LowLevel/Endpoint.c **** 	UECFG0X = UECFG0XData;
  91               		.loc 1 57 0
  92 0014 6093 EC00 		sts 236,r22
  58:../../LUFA/Drivers/USB/LowLevel/Endpoint.c **** 	UECFG1X = UECFG1XData;
  93               		.loc 1 58 0
  94 0018 4083      		st Z,r20
  95               	.LBB265:
  96               	.LBB266:
 368:../../LUFA/Drivers/USB/LowLevel/Endpoint.h **** 			}
  97               		.loc 2 368 0
  98 001a 8091 EE00 		lds r24,238
  99               	.LBE266:
 100               	.LBE265:
  59:../../LUFA/Drivers/USB/LowLevel/Endpoint.c **** 
  60:../../LUFA/Drivers/USB/LowLevel/Endpoint.c **** 	return Endpoint_IsConfigured();
  61:../../LUFA/Drivers/USB/LowLevel/Endpoint.c **** }
 101               		.loc 1 61 0
 102 001e 881F      		rol r24
 103 0020 8827      		clr r24
 104 0022 881F      		rol r24
 105 0024 0895      		ret
 106               		.cfi_endproc
 107               	.LFE65:
 109               		.section	.text.Endpoint_ClearEndpoints,"ax",@progbits
 110               	.global	Endpoint_ClearEndpoints
 112               	Endpoint_ClearEndpoints:
 113               	.LFB66:
  62:../../LUFA/Drivers/USB/LowLevel/Endpoint.c **** 
  63:../../LUFA/Drivers/USB/LowLevel/Endpoint.c **** void Endpoint_ClearEndpoints(void)
  64:../../LUFA/Drivers/USB/LowLevel/Endpoint.c **** {
 114               		.loc 1 64 0
 115               		.cfi_startproc
 116               	/* prologue: function */
 117               	/* frame size = 0 */
 118               	/* stack size = 0 */
 119               	.L__stack_usage = 0
  65:../../LUFA/Drivers/USB/LowLevel/Endpoint.c **** 	UEINT = 0;
 120               		.loc 1 65 0
 121 0000 1092 F400 		sts 244,__zero_reg__
 122               	.LVL8:
 123               	.LBB267:
  66:../../LUFA/Drivers/USB/LowLevel/Endpoint.c **** 
  67:../../LUFA/Drivers/USB/LowLevel/Endpoint.c **** 	for (uint8_t EPNum = 0; EPNum < ENDPOINT_TOTAL_ENDPOINTS; EPNum++)
 124               		.loc 1 67 0
 125 0004 80E0      		ldi r24,0
 126               	.LVL9:
 127               	.L9:
 128               	.LBB268:
 129               	.LBB269:
 299:../../LUFA/Drivers/USB/LowLevel/Endpoint.h **** 				#endif			
 130               		.loc 2 299 0
 131 0006 8093 E900 		sts 233,r24
 132               	.LBE269:
 133               	.LBE268:
  68:../../LUFA/Drivers/USB/LowLevel/Endpoint.c **** 	{
  69:../../LUFA/Drivers/USB/LowLevel/Endpoint.c **** 		Endpoint_SelectEndpoint(EPNum);	
  70:../../LUFA/Drivers/USB/LowLevel/Endpoint.c **** 		UEIENX  = 0;
 134               		.loc 1 70 0
 135 000a 1092 F000 		sts 240,__zero_reg__
  71:../../LUFA/Drivers/USB/LowLevel/Endpoint.c **** 		UEINTX  = 0;
 136               		.loc 1 71 0
 137 000e 1092 E800 		sts 232,__zero_reg__
  72:../../LUFA/Drivers/USB/LowLevel/Endpoint.c **** 		UECFG1X = 0;
 138               		.loc 1 72 0
 139 0012 1092 ED00 		sts 237,__zero_reg__
 140               	.LBB270:
 141               	.LBB271:
 332:../../LUFA/Drivers/USB/LowLevel/Endpoint.h **** 			}
 142               		.loc 2 332 0
 143 0016 9091 EB00 		lds r25,235
 144 001a 9E7F      		andi r25,lo8(-2)
 145 001c 9093 EB00 		sts 235,r25
 146               	.LBE271:
 147               	.LBE270:
  67:../../LUFA/Drivers/USB/LowLevel/Endpoint.c **** 	{
 148               		.loc 1 67 0
 149 0020 8F5F      		subi r24,lo8(-(1))
 150               	.LVL10:
 151 0022 8530      		cpi r24,lo8(5)
 152 0024 01F4      		brne .L9
 153               	/* epilogue start */
 154               	.LBE267:
  73:../../LUFA/Drivers/USB/LowLevel/Endpoint.c **** 		Endpoint_DisableEndpoint();
  74:../../LUFA/Drivers/USB/LowLevel/Endpoint.c **** 	}
  75:../../LUFA/Drivers/USB/LowLevel/Endpoint.c **** }
 155               		.loc 1 75 0
 156 0026 0895      		ret
 157               		.cfi_endproc
 158               	.LFE66:
 160               		.section	.text.Endpoint_ClearStatusStage,"ax",@progbits
 161               	.global	Endpoint_ClearStatusStage
 163               	Endpoint_ClearStatusStage:
 164               	.LFB67:
  76:../../LUFA/Drivers/USB/LowLevel/Endpoint.c **** 
  77:../../LUFA/Drivers/USB/LowLevel/Endpoint.c **** void Endpoint_ClearStatusStage(void)
  78:../../LUFA/Drivers/USB/LowLevel/Endpoint.c **** {
 165               		.loc 1 78 0
 166               		.cfi_startproc
 167               	/* prologue: function */
 168               	/* frame size = 0 */
 169               	/* stack size = 0 */
 170               	.L__stack_usage = 0
  79:../../LUFA/Drivers/USB/LowLevel/Endpoint.c **** 	if (USB_ControlRequest.bmRequestType & REQDIR_DEVICETOHOST)
 171               		.loc 1 79 0
 172 0000 8091 0000 		lds r24,USB_ControlRequest
 173 0004 87FD      		sbrc r24,7
 174 0006 00C0      		rjmp .L16
 175               	.L17:
 176               	.LBB272:
 177               	.LBB273:
 405:../../LUFA/Drivers/USB/LowLevel/Endpoint.h **** 			}
 178               		.loc 2 405 0
 179 0008 8091 E800 		lds r24,232
 180               	.LBE273:
 181               	.LBE272:
  80:../../LUFA/Drivers/USB/LowLevel/Endpoint.c **** 	{
  81:../../LUFA/Drivers/USB/LowLevel/Endpoint.c **** 		while (!(Endpoint_IsOUTReceived()))
  82:../../LUFA/Drivers/USB/LowLevel/Endpoint.c **** 		{
  83:../../LUFA/Drivers/USB/LowLevel/Endpoint.c **** 			if (USB_DeviceState == DEVICE_STATE_Unattached)
  84:../../LUFA/Drivers/USB/LowLevel/Endpoint.c **** 			  return;
  85:../../LUFA/Drivers/USB/LowLevel/Endpoint.c **** 		}
  86:../../LUFA/Drivers/USB/LowLevel/Endpoint.c **** 
  87:../../LUFA/Drivers/USB/LowLevel/Endpoint.c **** 		Endpoint_ClearOUT();
  88:../../LUFA/Drivers/USB/LowLevel/Endpoint.c **** 	}
  89:../../LUFA/Drivers/USB/LowLevel/Endpoint.c **** 	else
  90:../../LUFA/Drivers/USB/LowLevel/Endpoint.c **** 	{
  91:../../LUFA/Drivers/USB/LowLevel/Endpoint.c **** 		while (!(Endpoint_IsINReady()))
 182               		.loc 1 91 0
 183 000c 80FF      		sbrs r24,0
 184 000e 00C0      		rjmp .L12
 185 0010 00C0      		rjmp .L26
 186               	.L16:
 187               	.LBB274:
 188               	.LBB275:
 417:../../LUFA/Drivers/USB/LowLevel/Endpoint.h **** 			}
 189               		.loc 2 417 0
 190 0012 8091 E800 		lds r24,232
 191               	.LBE275:
 192               	.LBE274:
  81:../../LUFA/Drivers/USB/LowLevel/Endpoint.c **** 		{
 193               		.loc 1 81 0
 194 0016 82FD      		sbrc r24,2
 195 0018 00C0      		rjmp .L14
  83:../../LUFA/Drivers/USB/LowLevel/Endpoint.c **** 			  return;
 196               		.loc 1 83 0
 197 001a 8EB3      		in r24,0x1e
 198 001c 8111      		cpse r24,__zero_reg__
 199 001e 00C0      		rjmp .L16
 200 0020 0895      		ret
 201               	.L14:
 202               	.LBB276:
 203               	.LBB277:
 469:../../LUFA/Drivers/USB/LowLevel/Endpoint.h **** 				#else
 204               		.loc 2 469 0
 205 0022 8091 E800 		lds r24,232
 206 0026 8B77      		andi r24,lo8(123)
 207 0028 00C0      		rjmp .L25
 208               	.L12:
 209               	.LBE277:
 210               	.LBE276:
  92:../../LUFA/Drivers/USB/LowLevel/Endpoint.c **** 		{
  93:../../LUFA/Drivers/USB/LowLevel/Endpoint.c **** 			if (USB_DeviceState == DEVICE_STATE_Unattached)
 211               		.loc 1 93 0
 212 002a 8EB3      		in r24,0x1e
 213 002c 8111      		cpse r24,__zero_reg__
 214 002e 00C0      		rjmp .L17
 215 0030 0895      		ret
 216               	.L26:
 217               	.LBB278:
 218               	.LBB279:
 454:../../LUFA/Drivers/USB/LowLevel/Endpoint.h **** 				#else
 219               		.loc 2 454 0
 220 0032 8091 E800 		lds r24,232
 221 0036 8E77      		andi r24,lo8(126)
 222               	.L25:
 223 0038 8093 E800 		sts 232,r24
 224 003c 0895      		ret
 225               	.LBE279:
 226               	.LBE278:
 227               		.cfi_endproc
 228               	.LFE67:
 230               		.section	.text.Endpoint_WaitUntilReady,"ax",@progbits
 231               	.global	Endpoint_WaitUntilReady
 233               	Endpoint_WaitUntilReady:
 234               	.LFB68:
  94:../../LUFA/Drivers/USB/LowLevel/Endpoint.c **** 			  return;
  95:../../LUFA/Drivers/USB/LowLevel/Endpoint.c **** 		}
  96:../../LUFA/Drivers/USB/LowLevel/Endpoint.c **** 		
  97:../../LUFA/Drivers/USB/LowLevel/Endpoint.c **** 		Endpoint_ClearIN();
  98:../../LUFA/Drivers/USB/LowLevel/Endpoint.c **** 	}
  99:../../LUFA/Drivers/USB/LowLevel/Endpoint.c **** }
 100:../../LUFA/Drivers/USB/LowLevel/Endpoint.c **** 
 101:../../LUFA/Drivers/USB/LowLevel/Endpoint.c **** #if !defined(CONTROL_ONLY_DEVICE)
 102:../../LUFA/Drivers/USB/LowLevel/Endpoint.c **** uint8_t Endpoint_WaitUntilReady(void)
 103:../../LUFA/Drivers/USB/LowLevel/Endpoint.c **** {
 235               		.loc 1 103 0
 236               		.cfi_startproc
 237               	/* prologue: function */
 238               	/* frame size = 0 */
 239               	/* stack size = 0 */
 240               	.L__stack_usage = 0
 241               	.LVL11:
 242               		.loc 1 103 0
 243 0000 85E6      		ldi r24,lo8(101)
 244               	.LVL12:
 245               	.L32:
 246               	.LBB280:
 247               	.LBB281:
 528:../../LUFA/Drivers/USB/LowLevel/Endpoint.h **** 			}
 248               		.loc 2 528 0
 249 0002 9091 EC00 		lds r25,236
 250               	.LBE281:
 251               	.LBE280:
 104:../../LUFA/Drivers/USB/LowLevel/Endpoint.c **** 	#if (USB_STREAM_TIMEOUT_MS < 0xFF)
 105:../../LUFA/Drivers/USB/LowLevel/Endpoint.c **** 	uint8_t  TimeoutMSRem = USB_STREAM_TIMEOUT_MS;	
 106:../../LUFA/Drivers/USB/LowLevel/Endpoint.c **** 	#else
 107:../../LUFA/Drivers/USB/LowLevel/Endpoint.c **** 	uint16_t TimeoutMSRem = USB_STREAM_TIMEOUT_MS;
 108:../../LUFA/Drivers/USB/LowLevel/Endpoint.c **** 	#endif
 109:../../LUFA/Drivers/USB/LowLevel/Endpoint.c **** 
 110:../../LUFA/Drivers/USB/LowLevel/Endpoint.c **** 	for (;;)
 111:../../LUFA/Drivers/USB/LowLevel/Endpoint.c **** 	{
 112:../../LUFA/Drivers/USB/LowLevel/Endpoint.c **** 		if (Endpoint_GetEndpointDirection() == ENDPOINT_DIR_IN)
 252               		.loc 1 112 0
 253 0006 90FF      		sbrs r25,0
 254 0008 00C0      		rjmp .L28
 255               	.LBB282:
 256               	.LBB283:
 405:../../LUFA/Drivers/USB/LowLevel/Endpoint.h **** 			}
 257               		.loc 2 405 0
 258 000a 9091 E800 		lds r25,232
 259               	.LBE283:
 260               	.LBE282:
 113:../../LUFA/Drivers/USB/LowLevel/Endpoint.c **** 		{
 114:../../LUFA/Drivers/USB/LowLevel/Endpoint.c **** 			if (Endpoint_IsINReady())
 261               		.loc 1 114 0
 262 000e 90FF      		sbrs r25,0
 263 0010 00C0      		rjmp .L30
 264 0012 00C0      		rjmp .L35
 265               	.L28:
 266               	.LBB284:
 267               	.LBB285:
 417:../../LUFA/Drivers/USB/LowLevel/Endpoint.h **** 			}
 268               		.loc 2 417 0
 269 0014 9091 E800 		lds r25,232
 270               	.LBE285:
 271               	.LBE284:
 115:../../LUFA/Drivers/USB/LowLevel/Endpoint.c **** 			  return ENDPOINT_READYWAIT_NoError;
 116:../../LUFA/Drivers/USB/LowLevel/Endpoint.c **** 		}
 117:../../LUFA/Drivers/USB/LowLevel/Endpoint.c **** 		else
 118:../../LUFA/Drivers/USB/LowLevel/Endpoint.c **** 		{
 119:../../LUFA/Drivers/USB/LowLevel/Endpoint.c **** 			if (Endpoint_IsOUTReceived())
 272               		.loc 1 119 0
 273 0018 92FD      		sbrc r25,2
 274 001a 00C0      		rjmp .L35
 275               	.L30:
 120:../../LUFA/Drivers/USB/LowLevel/Endpoint.c **** 			  return ENDPOINT_READYWAIT_NoError;
 121:../../LUFA/Drivers/USB/LowLevel/Endpoint.c **** 		}
 122:../../LUFA/Drivers/USB/LowLevel/Endpoint.c **** 		
 123:../../LUFA/Drivers/USB/LowLevel/Endpoint.c **** 		if (USB_DeviceState == DEVICE_STATE_Unattached)
 276               		.loc 1 123 0
 277 001c 9EB3      		in r25,0x1e
 278 001e 9923      		tst r25
 279 0020 01F0      		breq .L36
 124:../../LUFA/Drivers/USB/LowLevel/Endpoint.c **** 		  return ENDPOINT_READYWAIT_DeviceDisconnected;
 125:../../LUFA/Drivers/USB/LowLevel/Endpoint.c **** 		else if (USB_DeviceState == DEVICE_STATE_Suspended)
 280               		.loc 1 125 0
 281 0022 9EB3      		in r25,0x1e
 282 0024 9530      		cpi r25,lo8(5)
 283 0026 01F0      		breq .L37
 284               	.LBB286:
 285               	.LBB287:
 511:../../LUFA/Drivers/USB/LowLevel/Endpoint.h **** 			}
 286               		.loc 2 511 0
 287 0028 9091 EB00 		lds r25,235
 288               	.LBE287:
 289               	.LBE286:
 126:../../LUFA/Drivers/USB/LowLevel/Endpoint.c **** 		  return ENDPOINT_READYWAIT_BusSuspended;
 127:../../LUFA/Drivers/USB/LowLevel/Endpoint.c **** 		else if (Endpoint_IsStalled())
 290               		.loc 1 127 0
 291 002c 95FD      		sbrc r25,5
 292 002e 00C0      		rjmp .L38
 128:../../LUFA/Drivers/USB/LowLevel/Endpoint.c **** 		  return ENDPOINT_READYWAIT_EndpointStalled;
 129:../../LUFA/Drivers/USB/LowLevel/Endpoint.c **** 			  
 130:../../LUFA/Drivers/USB/LowLevel/Endpoint.c **** 		if (USB_INT_HasOccurred(USB_INT_SOFI))
 293               		.loc 1 130 0
 294 0030 9091 E100 		lds r25,225
 295 0034 92FF      		sbrs r25,2
 296 0036 00C0      		rjmp .L32
 131:../../LUFA/Drivers/USB/LowLevel/Endpoint.c **** 		{
 132:../../LUFA/Drivers/USB/LowLevel/Endpoint.c **** 			USB_INT_Clear(USB_INT_SOFI);
 297               		.loc 1 132 0
 298 0038 9091 E100 		lds r25,225
 299 003c 9B7F      		andi r25,lo8(-5)
 300 003e 9093 E100 		sts 225,r25
 301               	.LVL13:
 302 0042 8150      		subi r24,lo8(-(-1))
 303               	.LVL14:
 133:../../LUFA/Drivers/USB/LowLevel/Endpoint.c **** 
 134:../../LUFA/Drivers/USB/LowLevel/Endpoint.c **** 			if (!(TimeoutMSRem--))
 304               		.loc 1 134 0
 305 0044 01F4      		brne .L32
 135:../../LUFA/Drivers/USB/LowLevel/Endpoint.c **** 			  return ENDPOINT_READYWAIT_Timeout;
 306               		.loc 1 135 0
 307 0046 84E0      		ldi r24,lo8(4)
 308               	.LVL15:
 136:../../LUFA/Drivers/USB/LowLevel/Endpoint.c **** 		}
 137:../../LUFA/Drivers/USB/LowLevel/Endpoint.c **** 	}
 138:../../LUFA/Drivers/USB/LowLevel/Endpoint.c **** }
 309               		.loc 1 138 0
 310 0048 0895      		ret
 311               	.LVL16:
 312               	.L35:
 115:../../LUFA/Drivers/USB/LowLevel/Endpoint.c **** 		}
 313               		.loc 1 115 0
 314 004a 80E0      		ldi r24,0
 315               	.LVL17:
 316 004c 0895      		ret
 317               	.LVL18:
 318               	.L36:
 124:../../LUFA/Drivers/USB/LowLevel/Endpoint.c **** 		else if (USB_DeviceState == DEVICE_STATE_Suspended)
 319               		.loc 1 124 0
 320 004e 82E0      		ldi r24,lo8(2)
 321               	.LVL19:
 322 0050 0895      		ret
 323               	.LVL20:
 324               	.L37:
 126:../../LUFA/Drivers/USB/LowLevel/Endpoint.c **** 		else if (Endpoint_IsStalled())
 325               		.loc 1 126 0
 326 0052 83E0      		ldi r24,lo8(3)
 327               	.LVL21:
 328 0054 0895      		ret
 329               	.LVL22:
 330               	.L38:
 128:../../LUFA/Drivers/USB/LowLevel/Endpoint.c **** 			  
 331               		.loc 1 128 0
 332 0056 81E0      		ldi r24,lo8(1)
 333               	.LVL23:
 334 0058 0895      		ret
 335               		.cfi_endproc
 336               	.LFE68:
 338               		.section	.text.Endpoint_Discard_Stream,"ax",@progbits
 339               	.global	Endpoint_Discard_Stream
 341               	Endpoint_Discard_Stream:
 342               	.LFB69:
 139:../../LUFA/Drivers/USB/LowLevel/Endpoint.c **** 
 140:../../LUFA/Drivers/USB/LowLevel/Endpoint.c **** uint8_t Endpoint_Discard_Stream(uint16_t Length
 141:../../LUFA/Drivers/USB/LowLevel/Endpoint.c **** #if !defined(NO_STREAM_CALLBACKS)
 142:../../LUFA/Drivers/USB/LowLevel/Endpoint.c ****                                 , StreamCallbackPtr_t Callback
 143:../../LUFA/Drivers/USB/LowLevel/Endpoint.c **** #endif
 144:../../LUFA/Drivers/USB/LowLevel/Endpoint.c ****                                 )
 145:../../LUFA/Drivers/USB/LowLevel/Endpoint.c **** {
 343               		.loc 1 145 0
 344               		.cfi_startproc
 345               	.LVL24:
 346 0000 0F93      		push r16
 347               	.LCFI0:
 348               		.cfi_def_cfa_offset 3
 349               		.cfi_offset 16, -2
 350 0002 1F93      		push r17
 351               	.LCFI1:
 352               		.cfi_def_cfa_offset 4
 353               		.cfi_offset 17, -3
 354 0004 CF93      		push r28
 355               	.LCFI2:
 356               		.cfi_def_cfa_offset 5
 357               		.cfi_offset 28, -4
 358 0006 DF93      		push r29
 359               	.LCFI3:
 360               		.cfi_def_cfa_offset 6
 361               		.cfi_offset 29, -5
 362               	/* prologue: function */
 363               	/* frame size = 0 */
 364               	/* stack size = 4 */
 365               	.L__stack_usage = 4
 366 0008 EC01      		movw r28,r24
 367 000a 8B01      		movw r16,r22
 368               	.LVL25:
 369               	.L46:
 146:../../LUFA/Drivers/USB/LowLevel/Endpoint.c **** 	uint8_t  ErrorCode;
 147:../../LUFA/Drivers/USB/LowLevel/Endpoint.c **** 	
 148:../../LUFA/Drivers/USB/LowLevel/Endpoint.c **** 	if ((ErrorCode = Endpoint_WaitUntilReady()))
 149:../../LUFA/Drivers/USB/LowLevel/Endpoint.c **** 	  return ErrorCode;
 150:../../LUFA/Drivers/USB/LowLevel/Endpoint.c **** 
 151:../../LUFA/Drivers/USB/LowLevel/Endpoint.c **** 	#if defined(FAST_STREAM_TRANSFERS)
 152:../../LUFA/Drivers/USB/LowLevel/Endpoint.c **** 	uint8_t BytesRemToAlignment = (Endpoint_BytesInEndpoint() & 0x07);
 153:../../LUFA/Drivers/USB/LowLevel/Endpoint.c **** 
 154:../../LUFA/Drivers/USB/LowLevel/Endpoint.c **** 	if (Length >= 8)
 155:../../LUFA/Drivers/USB/LowLevel/Endpoint.c **** 	{
 156:../../LUFA/Drivers/USB/LowLevel/Endpoint.c **** 		Length -= BytesRemToAlignment;
 157:../../LUFA/Drivers/USB/LowLevel/Endpoint.c **** 
 158:../../LUFA/Drivers/USB/LowLevel/Endpoint.c **** 		switch (BytesRemToAlignment)
 159:../../LUFA/Drivers/USB/LowLevel/Endpoint.c **** 		{
 160:../../LUFA/Drivers/USB/LowLevel/Endpoint.c **** 			default:
 161:../../LUFA/Drivers/USB/LowLevel/Endpoint.c **** 				do
 162:../../LUFA/Drivers/USB/LowLevel/Endpoint.c **** 				{
 163:../../LUFA/Drivers/USB/LowLevel/Endpoint.c **** 					if (!(Endpoint_IsReadWriteAllowed()))
 164:../../LUFA/Drivers/USB/LowLevel/Endpoint.c **** 					{
 165:../../LUFA/Drivers/USB/LowLevel/Endpoint.c **** 						Endpoint_ClearOUT();
 166:../../LUFA/Drivers/USB/LowLevel/Endpoint.c **** 
 167:../../LUFA/Drivers/USB/LowLevel/Endpoint.c **** 						#if !defined(NO_STREAM_CALLBACKS)
 168:../../LUFA/Drivers/USB/LowLevel/Endpoint.c **** 						if ((Callback != NULL) && (Callback() == STREAMCALLBACK_Abort))
 169:../../LUFA/Drivers/USB/LowLevel/Endpoint.c **** 						  return ENDPOINT_RWSTREAM_CallbackAborted;
 170:../../LUFA/Drivers/USB/LowLevel/Endpoint.c **** 						#endif
 171:../../LUFA/Drivers/USB/LowLevel/Endpoint.c **** 
 172:../../LUFA/Drivers/USB/LowLevel/Endpoint.c **** 						if ((ErrorCode = Endpoint_WaitUntilReady()))
 173:../../LUFA/Drivers/USB/LowLevel/Endpoint.c **** 						  return ErrorCode;
 174:../../LUFA/Drivers/USB/LowLevel/Endpoint.c **** 					}
 175:../../LUFA/Drivers/USB/LowLevel/Endpoint.c **** 
 176:../../LUFA/Drivers/USB/LowLevel/Endpoint.c **** 					Length -= 8;
 177:../../LUFA/Drivers/USB/LowLevel/Endpoint.c **** 					
 178:../../LUFA/Drivers/USB/LowLevel/Endpoint.c **** 					Endpoint_Discard_Byte();
 179:../../LUFA/Drivers/USB/LowLevel/Endpoint.c **** 			case 7: Endpoint_Discard_Byte();
 180:../../LUFA/Drivers/USB/LowLevel/Endpoint.c **** 			case 6: Endpoint_Discard_Byte();
 181:../../LUFA/Drivers/USB/LowLevel/Endpoint.c **** 			case 5: Endpoint_Discard_Byte();
 182:../../LUFA/Drivers/USB/LowLevel/Endpoint.c **** 			case 4: Endpoint_Discard_Byte();
 183:../../LUFA/Drivers/USB/LowLevel/Endpoint.c **** 			case 3: Endpoint_Discard_Byte();
 184:../../LUFA/Drivers/USB/LowLevel/Endpoint.c **** 			case 2: Endpoint_Discard_Byte();
 185:../../LUFA/Drivers/USB/LowLevel/Endpoint.c **** 			case 1:	Endpoint_Discard_Byte();
 186:../../LUFA/Drivers/USB/LowLevel/Endpoint.c **** 				} while (Length >= 8);	
 187:../../LUFA/Drivers/USB/LowLevel/Endpoint.c **** 		}
 188:../../LUFA/Drivers/USB/LowLevel/Endpoint.c **** 	}
 189:../../LUFA/Drivers/USB/LowLevel/Endpoint.c **** 	#endif
 190:../../LUFA/Drivers/USB/LowLevel/Endpoint.c **** 
 191:../../LUFA/Drivers/USB/LowLevel/Endpoint.c **** 	while (Length)
 192:../../LUFA/Drivers/USB/LowLevel/Endpoint.c **** 	{
 193:../../LUFA/Drivers/USB/LowLevel/Endpoint.c **** 		if (!(Endpoint_IsReadWriteAllowed()))
 194:../../LUFA/Drivers/USB/LowLevel/Endpoint.c **** 		{
 195:../../LUFA/Drivers/USB/LowLevel/Endpoint.c **** 			Endpoint_ClearOUT();
 196:../../LUFA/Drivers/USB/LowLevel/Endpoint.c **** 
 197:../../LUFA/Drivers/USB/LowLevel/Endpoint.c **** 			#if !defined(NO_STREAM_CALLBACKS)
 198:../../LUFA/Drivers/USB/LowLevel/Endpoint.c **** 			if ((Callback != NULL) && (Callback() == STREAMCALLBACK_Abort))
 199:../../LUFA/Drivers/USB/LowLevel/Endpoint.c **** 			  return ENDPOINT_RWSTREAM_CallbackAborted;
 200:../../LUFA/Drivers/USB/LowLevel/Endpoint.c **** 			#endif
 201:../../LUFA/Drivers/USB/LowLevel/Endpoint.c **** 
 202:../../LUFA/Drivers/USB/LowLevel/Endpoint.c **** 			if ((ErrorCode = Endpoint_WaitUntilReady()))
 370               		.loc 1 202 0
 371 000c 0E94 0000 		call Endpoint_WaitUntilReady
 372               	.LVL26:
 373 0010 8111      		cpse r24,__zero_reg__
 374 0012 00C0      		rjmp .L41
 375               	.LVL27:
 376               	.L42:
 191:../../LUFA/Drivers/USB/LowLevel/Endpoint.c **** 	{
 377               		.loc 1 191 0 discriminator 1
 378 0014 2097      		sbiw r28,0
 379 0016 01F0      		breq .L52
 380               	.LBB288:
 381               	.LBB289:
 358:../../LUFA/Drivers/USB/LowLevel/Endpoint.h **** 			}
 382               		.loc 2 358 0
 383 0018 8091 E800 		lds r24,232
 384               	.LBE289:
 385               	.LBE288:
 193:../../LUFA/Drivers/USB/LowLevel/Endpoint.c **** 		{
 386               		.loc 1 193 0
 387 001c 85FD      		sbrc r24,5
 388 001e 00C0      		rjmp .L43
 389               	.LBB290:
 390               	.LBB291:
 469:../../LUFA/Drivers/USB/LowLevel/Endpoint.h **** 				#else
 391               		.loc 2 469 0
 392 0020 8091 E800 		lds r24,232
 393 0024 8B77      		andi r24,lo8(123)
 394 0026 8093 E800 		sts 232,r24
 395               	.LBE291:
 396               	.LBE290:
 198:../../LUFA/Drivers/USB/LowLevel/Endpoint.c **** 			  return ENDPOINT_RWSTREAM_CallbackAborted;
 397               		.loc 1 198 0
 398 002a 0115      		cp r16,__zero_reg__
 399 002c 1105      		cpc r17,__zero_reg__
 400 002e 01F0      		breq .L46
 198:../../LUFA/Drivers/USB/LowLevel/Endpoint.c **** 			  return ENDPOINT_RWSTREAM_CallbackAborted;
 401               		.loc 1 198 0 is_stmt 0 discriminator 1
 402 0030 F801      		movw r30,r16
 403 0032 0995      		icall
 404               	.LVL28:
 405 0034 8130      		cpi r24,lo8(1)
 406 0036 01F4      		brne .L46
 199:../../LUFA/Drivers/USB/LowLevel/Endpoint.c **** 			#endif
 407               		.loc 1 199 0 is_stmt 1
 408 0038 85E0      		ldi r24,lo8(5)
 409 003a 00C0      		rjmp .L41
 410               	.L43:
 411               	.LBB292:
 412               	.LBB293:
 574:../../LUFA/Drivers/USB/LowLevel/Endpoint.h **** 			}
 413               		.loc 2 574 0
 414 003c 8091 F100 		lds r24,241
 415               	.LBE293:
 416               	.LBE292:
 203:../../LUFA/Drivers/USB/LowLevel/Endpoint.c **** 			  return ErrorCode;
 204:../../LUFA/Drivers/USB/LowLevel/Endpoint.c **** 		}
 205:../../LUFA/Drivers/USB/LowLevel/Endpoint.c **** 		else
 206:../../LUFA/Drivers/USB/LowLevel/Endpoint.c **** 		{
 207:../../LUFA/Drivers/USB/LowLevel/Endpoint.c **** 			Endpoint_Discard_Byte();
 208:../../LUFA/Drivers/USB/LowLevel/Endpoint.c **** 			Length--;
 417               		.loc 1 208 0
 418 0040 2197      		sbiw r28,1
 419               	.LVL29:
 420 0042 00C0      		rjmp .L42
 421               	.L52:
 209:../../LUFA/Drivers/USB/LowLevel/Endpoint.c **** 		}
 210:../../LUFA/Drivers/USB/LowLevel/Endpoint.c **** 	}
 211:../../LUFA/Drivers/USB/LowLevel/Endpoint.c **** 	
 212:../../LUFA/Drivers/USB/LowLevel/Endpoint.c **** 	return ENDPOINT_RWSTREAM_NoError;
 422               		.loc 1 212 0
 423 0044 80E0      		ldi r24,0
 424               	.L41:
 425               	/* epilogue start */
 213:../../LUFA/Drivers/USB/LowLevel/Endpoint.c **** }
 426               		.loc 1 213 0
 427 0046 DF91      		pop r29
 428 0048 CF91      		pop r28
 429               	.LVL30:
 430 004a 1F91      		pop r17
 431 004c 0F91      		pop r16
 432               	.LVL31:
 433 004e 0895      		ret
 434               		.cfi_endproc
 435               	.LFE69:
 437               		.section	.text.Endpoint_Write_Stream_LE,"ax",@progbits
 438               	.global	Endpoint_Write_Stream_LE
 440               	Endpoint_Write_Stream_LE:
 441               	.LFB70:
 442               		.file 3 "../../LUFA/Drivers/USB/LowLevel/Template/Template_Endpoint_RW.c"
   1:../../LUFA/Drivers/USB/LowLevel/Template/Template_Endpoint_RW.c **** uint8_t TEMPLATE_FUNC_NAME (TEMPLATE_BUFFER_TYPE Buffer,
   2:../../LUFA/Drivers/USB/LowLevel/Template/Template_Endpoint_RW.c ****                             uint16_t Length
   3:../../LUFA/Drivers/USB/LowLevel/Template/Template_Endpoint_RW.c ****                             __CALLBACK_PARAM)
   4:../../LUFA/Drivers/USB/LowLevel/Template/Template_Endpoint_RW.c **** {
 443               		.loc 3 4 0
 444               		.cfi_startproc
 445               	.LVL32:
 446 0000 EF92      		push r14
 447               	.LCFI4:
 448               		.cfi_def_cfa_offset 3
 449               		.cfi_offset 14, -2
 450 0002 FF92      		push r15
 451               	.LCFI5:
 452               		.cfi_def_cfa_offset 4
 453               		.cfi_offset 15, -3
 454 0004 0F93      		push r16
 455               	.LCFI6:
 456               		.cfi_def_cfa_offset 5
 457               		.cfi_offset 16, -4
 458 0006 1F93      		push r17
 459               	.LCFI7:
 460               		.cfi_def_cfa_offset 6
 461               		.cfi_offset 17, -5
 462 0008 CF93      		push r28
 463               	.LCFI8:
 464               		.cfi_def_cfa_offset 7
 465               		.cfi_offset 28, -6
 466 000a DF93      		push r29
 467               	.LCFI9:
 468               		.cfi_def_cfa_offset 8
 469               		.cfi_offset 29, -7
 470               	/* prologue: function */
 471               	/* frame size = 0 */
 472               	/* stack size = 6 */
 473               	.L__stack_usage = 6
 474 000c EC01      		movw r28,r24
 475 000e 8B01      		movw r16,r22
 476 0010 7A01      		movw r14,r20
 477               	.LVL33:
 478               	.L59:
   5:../../LUFA/Drivers/USB/LowLevel/Template/Template_Endpoint_RW.c **** 	uint8_t* DataStream = ((uint8_t*)Buffer + TEMPLATE_BUFFER_OFFSET(Length));
   6:../../LUFA/Drivers/USB/LowLevel/Template/Template_Endpoint_RW.c **** 	uint8_t  ErrorCode;
   7:../../LUFA/Drivers/USB/LowLevel/Template/Template_Endpoint_RW.c **** 	
   8:../../LUFA/Drivers/USB/LowLevel/Template/Template_Endpoint_RW.c **** 	if ((ErrorCode = Endpoint_WaitUntilReady()))
   9:../../LUFA/Drivers/USB/LowLevel/Template/Template_Endpoint_RW.c **** 	  return ErrorCode;
  10:../../LUFA/Drivers/USB/LowLevel/Template/Template_Endpoint_RW.c **** 
  11:../../LUFA/Drivers/USB/LowLevel/Template/Template_Endpoint_RW.c **** 	#if defined(FAST_STREAM_TRANSFERS)
  12:../../LUFA/Drivers/USB/LowLevel/Template/Template_Endpoint_RW.c **** 	uint8_t BytesRemToAlignment = (Endpoint_BytesInEndpoint() & 0x07);
  13:../../LUFA/Drivers/USB/LowLevel/Template/Template_Endpoint_RW.c **** 
  14:../../LUFA/Drivers/USB/LowLevel/Template/Template_Endpoint_RW.c **** 	if (Length >= 8)
  15:../../LUFA/Drivers/USB/LowLevel/Template/Template_Endpoint_RW.c **** 	{
  16:../../LUFA/Drivers/USB/LowLevel/Template/Template_Endpoint_RW.c **** 		Length -= BytesRemToAlignment;
  17:../../LUFA/Drivers/USB/LowLevel/Template/Template_Endpoint_RW.c **** 
  18:../../LUFA/Drivers/USB/LowLevel/Template/Template_Endpoint_RW.c **** 		switch (BytesRemToAlignment)
  19:../../LUFA/Drivers/USB/LowLevel/Template/Template_Endpoint_RW.c **** 		{
  20:../../LUFA/Drivers/USB/LowLevel/Template/Template_Endpoint_RW.c **** 			default:
  21:../../LUFA/Drivers/USB/LowLevel/Template/Template_Endpoint_RW.c **** 				do
  22:../../LUFA/Drivers/USB/LowLevel/Template/Template_Endpoint_RW.c **** 				{
  23:../../LUFA/Drivers/USB/LowLevel/Template/Template_Endpoint_RW.c **** 					if (!(Endpoint_IsReadWriteAllowed()))
  24:../../LUFA/Drivers/USB/LowLevel/Template/Template_Endpoint_RW.c **** 					{
  25:../../LUFA/Drivers/USB/LowLevel/Template/Template_Endpoint_RW.c **** 						TEMPLATE_CLEAR_ENDPOINT();
  26:../../LUFA/Drivers/USB/LowLevel/Template/Template_Endpoint_RW.c **** 
  27:../../LUFA/Drivers/USB/LowLevel/Template/Template_Endpoint_RW.c **** 						#if !defined(NO_STREAM_CALLBACKS)
  28:../../LUFA/Drivers/USB/LowLevel/Template/Template_Endpoint_RW.c **** 						if ((Callback != NULL) && (Callback() == STREAMCALLBACK_Abort))
  29:../../LUFA/Drivers/USB/LowLevel/Template/Template_Endpoint_RW.c **** 						  return ENDPOINT_RWSTREAM_CallbackAborted;
  30:../../LUFA/Drivers/USB/LowLevel/Template/Template_Endpoint_RW.c **** 						#endif
  31:../../LUFA/Drivers/USB/LowLevel/Template/Template_Endpoint_RW.c **** 
  32:../../LUFA/Drivers/USB/LowLevel/Template/Template_Endpoint_RW.c **** 						if ((ErrorCode = Endpoint_WaitUntilReady()))
  33:../../LUFA/Drivers/USB/LowLevel/Template/Template_Endpoint_RW.c **** 						  return ErrorCode;
  34:../../LUFA/Drivers/USB/LowLevel/Template/Template_Endpoint_RW.c **** 					}
  35:../../LUFA/Drivers/USB/LowLevel/Template/Template_Endpoint_RW.c **** 
  36:../../LUFA/Drivers/USB/LowLevel/Template/Template_Endpoint_RW.c **** 					Length -= 8;
  37:../../LUFA/Drivers/USB/LowLevel/Template/Template_Endpoint_RW.c **** 					
  38:../../LUFA/Drivers/USB/LowLevel/Template/Template_Endpoint_RW.c **** 					TEMPLATE_TRANSFER_BYTE(DataStream);
  39:../../LUFA/Drivers/USB/LowLevel/Template/Template_Endpoint_RW.c **** 			case 7: TEMPLATE_TRANSFER_BYTE(DataStream);
  40:../../LUFA/Drivers/USB/LowLevel/Template/Template_Endpoint_RW.c **** 			case 6: TEMPLATE_TRANSFER_BYTE(DataStream);
  41:../../LUFA/Drivers/USB/LowLevel/Template/Template_Endpoint_RW.c **** 			case 5: TEMPLATE_TRANSFER_BYTE(DataStream);
  42:../../LUFA/Drivers/USB/LowLevel/Template/Template_Endpoint_RW.c **** 			case 4: TEMPLATE_TRANSFER_BYTE(DataStream);
  43:../../LUFA/Drivers/USB/LowLevel/Template/Template_Endpoint_RW.c **** 			case 3: TEMPLATE_TRANSFER_BYTE(DataStream);
  44:../../LUFA/Drivers/USB/LowLevel/Template/Template_Endpoint_RW.c **** 			case 2: TEMPLATE_TRANSFER_BYTE(DataStream);
  45:../../LUFA/Drivers/USB/LowLevel/Template/Template_Endpoint_RW.c **** 			case 1:	TEMPLATE_TRANSFER_BYTE(DataStream);
  46:../../LUFA/Drivers/USB/LowLevel/Template/Template_Endpoint_RW.c **** 				} while (Length >= 8);	
  47:../../LUFA/Drivers/USB/LowLevel/Template/Template_Endpoint_RW.c **** 		}
  48:../../LUFA/Drivers/USB/LowLevel/Template/Template_Endpoint_RW.c **** 	}
  49:../../LUFA/Drivers/USB/LowLevel/Template/Template_Endpoint_RW.c **** 	#endif
  50:../../LUFA/Drivers/USB/LowLevel/Template/Template_Endpoint_RW.c **** 
  51:../../LUFA/Drivers/USB/LowLevel/Template/Template_Endpoint_RW.c **** 	while (Length)
  52:../../LUFA/Drivers/USB/LowLevel/Template/Template_Endpoint_RW.c **** 	{
  53:../../LUFA/Drivers/USB/LowLevel/Template/Template_Endpoint_RW.c **** 		if (!(Endpoint_IsReadWriteAllowed()))
  54:../../LUFA/Drivers/USB/LowLevel/Template/Template_Endpoint_RW.c **** 		{
  55:../../LUFA/Drivers/USB/LowLevel/Template/Template_Endpoint_RW.c **** 			TEMPLATE_CLEAR_ENDPOINT();
  56:../../LUFA/Drivers/USB/LowLevel/Template/Template_Endpoint_RW.c **** 
  57:../../LUFA/Drivers/USB/LowLevel/Template/Template_Endpoint_RW.c **** 			#if !defined(NO_STREAM_CALLBACKS)
  58:../../LUFA/Drivers/USB/LowLevel/Template/Template_Endpoint_RW.c **** 			if ((Callback != NULL) && (Callback() == STREAMCALLBACK_Abort))
  59:../../LUFA/Drivers/USB/LowLevel/Template/Template_Endpoint_RW.c **** 			  return ENDPOINT_RWSTREAM_CallbackAborted;
  60:../../LUFA/Drivers/USB/LowLevel/Template/Template_Endpoint_RW.c **** 			#endif
  61:../../LUFA/Drivers/USB/LowLevel/Template/Template_Endpoint_RW.c **** 
  62:../../LUFA/Drivers/USB/LowLevel/Template/Template_Endpoint_RW.c **** 			if ((ErrorCode = Endpoint_WaitUntilReady()))
 479               		.loc 3 62 0
 480 0012 0E94 0000 		call Endpoint_WaitUntilReady
 481               	.LVL34:
 482 0016 8111      		cpse r24,__zero_reg__
 483 0018 00C0      		rjmp .L54
 484               	.LVL35:
 485               	.L55:
  51:../../LUFA/Drivers/USB/LowLevel/Template/Template_Endpoint_RW.c **** 	{
 486               		.loc 3 51 0 discriminator 1
 487 001a 0115      		cp r16,__zero_reg__
 488 001c 1105      		cpc r17,__zero_reg__
 489 001e 01F0      		breq .L65
 490               	.LBB294:
 491               	.LBB295:
 358:../../LUFA/Drivers/USB/LowLevel/Endpoint.h **** 			}
 492               		.loc 2 358 0
 493 0020 8091 E800 		lds r24,232
 494               	.LBE295:
 495               	.LBE294:
  53:../../LUFA/Drivers/USB/LowLevel/Template/Template_Endpoint_RW.c **** 		{
 496               		.loc 3 53 0
 497 0024 85FD      		sbrc r24,5
 498 0026 00C0      		rjmp .L56
 499               	.LBB296:
 500               	.LBB297:
 454:../../LUFA/Drivers/USB/LowLevel/Endpoint.h **** 				#else
 501               		.loc 2 454 0
 502 0028 8091 E800 		lds r24,232
 503 002c 8E77      		andi r24,lo8(126)
 504 002e 8093 E800 		sts 232,r24
 505               	.LBE297:
 506               	.LBE296:
  58:../../LUFA/Drivers/USB/LowLevel/Template/Template_Endpoint_RW.c **** 			  return ENDPOINT_RWSTREAM_CallbackAborted;
 507               		.loc 3 58 0
 508 0032 E114      		cp r14,__zero_reg__
 509 0034 F104      		cpc r15,__zero_reg__
 510 0036 01F0      		breq .L59
  58:../../LUFA/Drivers/USB/LowLevel/Template/Template_Endpoint_RW.c **** 			  return ENDPOINT_RWSTREAM_CallbackAborted;
 511               		.loc 3 58 0 is_stmt 0 discriminator 1
 512 0038 F701      		movw r30,r14
 513 003a 0995      		icall
 514               	.LVL36:
 515 003c 8130      		cpi r24,lo8(1)
 516 003e 01F4      		brne .L59
  59:../../LUFA/Drivers/USB/LowLevel/Template/Template_Endpoint_RW.c **** 			#endif
 517               		.loc 3 59 0 is_stmt 1
 518 0040 85E0      		ldi r24,lo8(5)
 519 0042 00C0      		rjmp .L54
 520               	.L56:
 521               	.LVL37:
  63:../../LUFA/Drivers/USB/LowLevel/Template/Template_Endpoint_RW.c **** 			  return ErrorCode;
  64:../../LUFA/Drivers/USB/LowLevel/Template/Template_Endpoint_RW.c **** 		}
  65:../../LUFA/Drivers/USB/LowLevel/Template/Template_Endpoint_RW.c **** 		else
  66:../../LUFA/Drivers/USB/LowLevel/Template/Template_Endpoint_RW.c **** 		{
  67:../../LUFA/Drivers/USB/LowLevel/Template/Template_Endpoint_RW.c **** 			TEMPLATE_TRANSFER_BYTE(DataStream);
 522               		.loc 3 67 0
 523 0044 8881      		ld r24,Y
 524               	.LVL38:
 525               	.LBB298:
 526               	.LBB299:
 562:../../LUFA/Drivers/USB/LowLevel/Endpoint.h **** 			}
 527               		.loc 2 562 0
 528 0046 8093 F100 		sts 241,r24
 529               	.LBE299:
 530               	.LBE298:
  68:../../LUFA/Drivers/USB/LowLevel/Template/Template_Endpoint_RW.c **** 			Length--;
 531               		.loc 3 68 0
 532 004a 0150      		subi r16,1
 533 004c 1109      		sbc r17,__zero_reg__
 534               	.LVL39:
  67:../../LUFA/Drivers/USB/LowLevel/Template/Template_Endpoint_RW.c **** 			Length--;
 535               		.loc 3 67 0
 536 004e 2196      		adiw r28,1
 537               	.LVL40:
 538 0050 00C0      		rjmp .L55
 539               	.LVL41:
 540               	.L65:
  69:../../LUFA/Drivers/USB/LowLevel/Template/Template_Endpoint_RW.c **** 		}
  70:../../LUFA/Drivers/USB/LowLevel/Template/Template_Endpoint_RW.c **** 	}
  71:../../LUFA/Drivers/USB/LowLevel/Template/Template_Endpoint_RW.c **** 
  72:../../LUFA/Drivers/USB/LowLevel/Template/Template_Endpoint_RW.c **** 	return ENDPOINT_RWSTREAM_NoError;
 541               		.loc 3 72 0
 542 0052 80E0      		ldi r24,0
 543               	.LVL42:
 544               	.L54:
 545               	/* epilogue start */
  73:../../LUFA/Drivers/USB/LowLevel/Template/Template_Endpoint_RW.c **** }
 546               		.loc 3 73 0
 547 0054 DF91      		pop r29
 548 0056 CF91      		pop r28
 549 0058 1F91      		pop r17
 550 005a 0F91      		pop r16
 551               	.LVL43:
 552 005c FF90      		pop r15
 553 005e EF90      		pop r14
 554               	.LVL44:
 555 0060 0895      		ret
 556               		.cfi_endproc
 557               	.LFE70:
 559               		.section	.text.Endpoint_Write_PStream_LE,"ax",@progbits
 560               	.global	Endpoint_Write_PStream_LE
 562               	Endpoint_Write_PStream_LE:
 563               	.LFB71:
   4:../../LUFA/Drivers/USB/LowLevel/Template/Template_Endpoint_RW.c **** 	uint8_t* DataStream = ((uint8_t*)Buffer + TEMPLATE_BUFFER_OFFSET(Length));
 564               		.loc 3 4 0
 565               		.cfi_startproc
 566               	.LVL45:
 567 0000 EF92      		push r14
 568               	.LCFI10:
 569               		.cfi_def_cfa_offset 3
 570               		.cfi_offset 14, -2
 571 0002 FF92      		push r15
 572               	.LCFI11:
 573               		.cfi_def_cfa_offset 4
 574               		.cfi_offset 15, -3
 575 0004 0F93      		push r16
 576               	.LCFI12:
 577               		.cfi_def_cfa_offset 5
 578               		.cfi_offset 16, -4
 579 0006 1F93      		push r17
 580               	.LCFI13:
 581               		.cfi_def_cfa_offset 6
 582               		.cfi_offset 17, -5
 583 0008 CF93      		push r28
 584               	.LCFI14:
 585               		.cfi_def_cfa_offset 7
 586               		.cfi_offset 28, -6
 587 000a DF93      		push r29
 588               	.LCFI15:
 589               		.cfi_def_cfa_offset 8
 590               		.cfi_offset 29, -7
 591               	/* prologue: function */
 592               	/* frame size = 0 */
 593               	/* stack size = 6 */
 594               	.L__stack_usage = 6
 595 000c EC01      		movw r28,r24
 596 000e 8B01      		movw r16,r22
 597 0010 7A01      		movw r14,r20
 598               	.LVL46:
 599               	.L72:
  62:../../LUFA/Drivers/USB/LowLevel/Template/Template_Endpoint_RW.c **** 			  return ErrorCode;
 600               		.loc 3 62 0
 601 0012 0E94 0000 		call Endpoint_WaitUntilReady
 602               	.LVL47:
 603 0016 8111      		cpse r24,__zero_reg__
 604 0018 00C0      		rjmp .L67
 605               	.LVL48:
 606               	.L68:
  51:../../LUFA/Drivers/USB/LowLevel/Template/Template_Endpoint_RW.c **** 	{
 607               		.loc 3 51 0 discriminator 1
 608 001a 0115      		cp r16,__zero_reg__
 609 001c 1105      		cpc r17,__zero_reg__
 610 001e 01F0      		breq .L78
 611               	.LBB300:
 612               	.LBB301:
 358:../../LUFA/Drivers/USB/LowLevel/Endpoint.h **** 			}
 613               		.loc 2 358 0
 614 0020 8091 E800 		lds r24,232
 615               	.LBE301:
 616               	.LBE300:
  53:../../LUFA/Drivers/USB/LowLevel/Template/Template_Endpoint_RW.c **** 		{
 617               		.loc 3 53 0
 618 0024 85FD      		sbrc r24,5
 619 0026 00C0      		rjmp .L69
 620               	.LBB302:
 621               	.LBB303:
 454:../../LUFA/Drivers/USB/LowLevel/Endpoint.h **** 				#else
 622               		.loc 2 454 0
 623 0028 8091 E800 		lds r24,232
 624 002c 8E77      		andi r24,lo8(126)
 625 002e 8093 E800 		sts 232,r24
 626               	.LBE303:
 627               	.LBE302:
  58:../../LUFA/Drivers/USB/LowLevel/Template/Template_Endpoint_RW.c **** 			  return ENDPOINT_RWSTREAM_CallbackAborted;
 628               		.loc 3 58 0
 629 0032 E114      		cp r14,__zero_reg__
 630 0034 F104      		cpc r15,__zero_reg__
 631 0036 01F0      		breq .L72
  58:../../LUFA/Drivers/USB/LowLevel/Template/Template_Endpoint_RW.c **** 			  return ENDPOINT_RWSTREAM_CallbackAborted;
 632               		.loc 3 58 0 is_stmt 0 discriminator 1
 633 0038 F701      		movw r30,r14
 634 003a 0995      		icall
 635               	.LVL49:
 636 003c 8130      		cpi r24,lo8(1)
 637 003e 01F4      		brne .L72
  59:../../LUFA/Drivers/USB/LowLevel/Template/Template_Endpoint_RW.c **** 			#endif
 638               		.loc 3 59 0 is_stmt 1
 639 0040 85E0      		ldi r24,lo8(5)
 640 0042 00C0      		rjmp .L67
 641               	.L69:
 642               	.LBB304:
  67:../../LUFA/Drivers/USB/LowLevel/Template/Template_Endpoint_RW.c **** 			Length--;
 643               		.loc 3 67 0
 644 0044 CE01      		movw r24,r28
 645 0046 0196      		adiw r24,1
 646               	.LVL50:
 647 0048 FE01      		movw r30,r28
 648               	/* #APP */
 649               	 ;  67 "../../LUFA/Drivers/USB/LowLevel/Template/Template_Endpoint_RW.c" 1
 650 004a C491      		lpm r28, Z
 651               		
 652               	 ;  0 "" 2
 653               	.LVL51:
 654               	/* #NOAPP */
 655               	.LBE304:
 656               	.LBB305:
 657               	.LBB306:
 562:../../LUFA/Drivers/USB/LowLevel/Endpoint.h **** 			}
 658               		.loc 2 562 0
 659 004c C093 F100 		sts 241,r28
 660               	.LBE306:
 661               	.LBE305:
  68:../../LUFA/Drivers/USB/LowLevel/Template/Template_Endpoint_RW.c **** 		}
 662               		.loc 3 68 0
 663 0050 0150      		subi r16,1
 664 0052 1109      		sbc r17,__zero_reg__
 665               	.LVL52:
 666               	.LBB307:
  67:../../LUFA/Drivers/USB/LowLevel/Template/Template_Endpoint_RW.c **** 			Length--;
 667               		.loc 3 67 0
 668 0054 EC01      		movw r28,r24
 669               	.LVL53:
 670 0056 00C0      		rjmp .L68
 671               	.LVL54:
 672               	.L78:
 673               	.LBE307:
  72:../../LUFA/Drivers/USB/LowLevel/Template/Template_Endpoint_RW.c **** }
 674               		.loc 3 72 0
 675 0058 80E0      		ldi r24,0
 676               	.LVL55:
 677               	.L67:
 678               	/* epilogue start */
 679               		.loc 3 73 0
 680 005a DF91      		pop r29
 681 005c CF91      		pop r28
 682 005e 1F91      		pop r17
 683 0060 0F91      		pop r16
 684               	.LVL56:
 685 0062 FF90      		pop r15
 686 0064 EF90      		pop r14
 687               	.LVL57:
 688 0066 0895      		ret
 689               		.cfi_endproc
 690               	.LFE71:
 692               		.section	.text.Endpoint_Write_EStream_LE,"ax",@progbits
 693               	.global	Endpoint_Write_EStream_LE
 695               	Endpoint_Write_EStream_LE:
 696               	.LFB72:
   4:../../LUFA/Drivers/USB/LowLevel/Template/Template_Endpoint_RW.c **** 	uint8_t* DataStream = ((uint8_t*)Buffer + TEMPLATE_BUFFER_OFFSET(Length));
 697               		.loc 3 4 0
 698               		.cfi_startproc
 699               	.LVL58:
 700 0000 CF92      		push r12
 701               	.LCFI16:
 702               		.cfi_def_cfa_offset 3
 703               		.cfi_offset 12, -2
 704 0002 DF92      		push r13
 705               	.LCFI17:
 706               		.cfi_def_cfa_offset 4
 707               		.cfi_offset 13, -3
 708 0004 EF92      		push r14
 709               	.LCFI18:
 710               		.cfi_def_cfa_offset 5
 711               		.cfi_offset 14, -4
 712 0006 FF92      		push r15
 713               	.LCFI19:
 714               		.cfi_def_cfa_offset 6
 715               		.cfi_offset 15, -5
 716 0008 0F93      		push r16
 717               	.LCFI20:
 718               		.cfi_def_cfa_offset 7
 719               		.cfi_offset 16, -6
 720 000a 1F93      		push r17
 721               	.LCFI21:
 722               		.cfi_def_cfa_offset 8
 723               		.cfi_offset 17, -7
 724 000c CF93      		push r28
 725               	.LCFI22:
 726               		.cfi_def_cfa_offset 9
 727               		.cfi_offset 28, -8
 728 000e DF93      		push r29
 729               	.LCFI23:
 730               		.cfi_def_cfa_offset 10
 731               		.cfi_offset 29, -9
 732               	/* prologue: function */
 733               	/* frame size = 0 */
 734               	/* stack size = 8 */
 735               	.L__stack_usage = 8
 736 0010 EC01      		movw r28,r24
 737 0012 8B01      		movw r16,r22
 738 0014 7A01      		movw r14,r20
 739               	.LVL59:
 740               	.L85:
  62:../../LUFA/Drivers/USB/LowLevel/Template/Template_Endpoint_RW.c **** 			  return ErrorCode;
 741               		.loc 3 62 0
 742 0016 0E94 0000 		call Endpoint_WaitUntilReady
 743               	.LVL60:
 744 001a 8111      		cpse r24,__zero_reg__
 745 001c 00C0      		rjmp .L80
 746               	.LVL61:
 747               	.L81:
  51:../../LUFA/Drivers/USB/LowLevel/Template/Template_Endpoint_RW.c **** 	{
 748               		.loc 3 51 0 discriminator 1
 749 001e 0115      		cp r16,__zero_reg__
 750 0020 1105      		cpc r17,__zero_reg__
 751 0022 01F0      		breq .L91
 752               	.LBB308:
 753               	.LBB309:
 358:../../LUFA/Drivers/USB/LowLevel/Endpoint.h **** 			}
 754               		.loc 2 358 0
 755 0024 8091 E800 		lds r24,232
 756               	.LBE309:
 757               	.LBE308:
  53:../../LUFA/Drivers/USB/LowLevel/Template/Template_Endpoint_RW.c **** 		{
 758               		.loc 3 53 0
 759 0028 85FD      		sbrc r24,5
 760 002a 00C0      		rjmp .L82
 761               	.LBB310:
 762               	.LBB311:
 454:../../LUFA/Drivers/USB/LowLevel/Endpoint.h **** 				#else
 763               		.loc 2 454 0
 764 002c 8091 E800 		lds r24,232
 765 0030 8E77      		andi r24,lo8(126)
 766 0032 8093 E800 		sts 232,r24
 767               	.LBE311:
 768               	.LBE310:
  58:../../LUFA/Drivers/USB/LowLevel/Template/Template_Endpoint_RW.c **** 			  return ENDPOINT_RWSTREAM_CallbackAborted;
 769               		.loc 3 58 0
 770 0036 E114      		cp r14,__zero_reg__
 771 0038 F104      		cpc r15,__zero_reg__
 772 003a 01F0      		breq .L85
  58:../../LUFA/Drivers/USB/LowLevel/Template/Template_Endpoint_RW.c **** 			  return ENDPOINT_RWSTREAM_CallbackAborted;
 773               		.loc 3 58 0 is_stmt 0 discriminator 1
 774 003c F701      		movw r30,r14
 775 003e 0995      		icall
 776               	.LVL62:
 777 0040 8130      		cpi r24,lo8(1)
 778 0042 01F4      		brne .L85
  59:../../LUFA/Drivers/USB/LowLevel/Template/Template_Endpoint_RW.c **** 			#endif
 779               		.loc 3 59 0 is_stmt 1
 780 0044 85E0      		ldi r24,lo8(5)
 781 0046 00C0      		rjmp .L80
 782               	.L82:
  67:../../LUFA/Drivers/USB/LowLevel/Template/Template_Endpoint_RW.c **** 			Length--;
 783               		.loc 3 67 0
 784 0048 6E01      		movw r12,r28
 785 004a FFEF      		ldi r31,-1
 786 004c CF1A      		sub r12,r31
 787 004e DF0A      		sbc r13,r31
 788               	.LVL63:
 789 0050 CE01      		movw r24,r28
 790 0052 0E94 0000 		call __eerd_byte_m8u2
 791               	.LVL64:
 792               	.LBB312:
 793               	.LBB313:
 562:../../LUFA/Drivers/USB/LowLevel/Endpoint.h **** 			}
 794               		.loc 2 562 0
 795 0056 8093 F100 		sts 241,r24
 796               	.LBE313:
 797               	.LBE312:
  68:../../LUFA/Drivers/USB/LowLevel/Template/Template_Endpoint_RW.c **** 		}
 798               		.loc 3 68 0
 799 005a 0150      		subi r16,1
 800 005c 1109      		sbc r17,__zero_reg__
 801               	.LVL65:
  67:../../LUFA/Drivers/USB/LowLevel/Template/Template_Endpoint_RW.c **** 			Length--;
 802               		.loc 3 67 0
 803 005e E601      		movw r28,r12
 804 0060 00C0      		rjmp .L81
 805               	.LVL66:
 806               	.L91:
  72:../../LUFA/Drivers/USB/LowLevel/Template/Template_Endpoint_RW.c **** }
 807               		.loc 3 72 0
 808 0062 80E0      		ldi r24,0
 809               	.LVL67:
 810               	.L80:
 811               	/* epilogue start */
 812               		.loc 3 73 0
 813 0064 DF91      		pop r29
 814 0066 CF91      		pop r28
 815 0068 1F91      		pop r17
 816 006a 0F91      		pop r16
 817               	.LVL68:
 818 006c FF90      		pop r15
 819 006e EF90      		pop r14
 820               	.LVL69:
 821 0070 DF90      		pop r13
 822 0072 CF90      		pop r12
 823 0074 0895      		ret
 824               		.cfi_endproc
 825               	.LFE72:
 827               		.section	.text.Endpoint_Write_Stream_BE,"ax",@progbits
 828               	.global	Endpoint_Write_Stream_BE
 830               	Endpoint_Write_Stream_BE:
 831               	.LFB73:
   4:../../LUFA/Drivers/USB/LowLevel/Template/Template_Endpoint_RW.c **** 	uint8_t* DataStream = ((uint8_t*)Buffer + TEMPLATE_BUFFER_OFFSET(Length));
 832               		.loc 3 4 0
 833               		.cfi_startproc
 834               	.LVL70:
 835 0000 CF92      		push r12
 836               	.LCFI24:
 837               		.cfi_def_cfa_offset 3
 838               		.cfi_offset 12, -2
 839 0002 DF92      		push r13
 840               	.LCFI25:
 841               		.cfi_def_cfa_offset 4
 842               		.cfi_offset 13, -3
 843 0004 EF92      		push r14
 844               	.LCFI26:
 845               		.cfi_def_cfa_offset 5
 846               		.cfi_offset 14, -4
 847 0006 FF92      		push r15
 848               	.LCFI27:
 849               		.cfi_def_cfa_offset 6
 850               		.cfi_offset 15, -5
 851 0008 0F93      		push r16
 852               	.LCFI28:
 853               		.cfi_def_cfa_offset 7
 854               		.cfi_offset 16, -6
 855 000a 1F93      		push r17
 856               	.LCFI29:
 857               		.cfi_def_cfa_offset 8
 858               		.cfi_offset 17, -7
 859 000c CF93      		push r28
 860               	.LCFI30:
 861               		.cfi_def_cfa_offset 9
 862               		.cfi_offset 28, -8
 863 000e DF93      		push r29
 864               	.LCFI31:
 865               		.cfi_def_cfa_offset 10
 866               		.cfi_offset 29, -9
 867               	/* prologue: function */
 868               	/* frame size = 0 */
 869               	/* stack size = 8 */
 870               	.L__stack_usage = 8
 871 0010 6C01      		movw r12,r24
 872 0012 8B01      		movw r16,r22
 873 0014 7A01      		movw r14,r20
 874               	.LVL71:
   8:../../LUFA/Drivers/USB/LowLevel/Template/Template_Endpoint_RW.c **** 	  return ErrorCode;
 875               		.loc 3 8 0
 876 0016 0E94 0000 		call Endpoint_WaitUntilReady
 877               	.LVL72:
 878 001a 8111      		cpse r24,__zero_reg__
 879 001c 00C0      		rjmp .L93
   5:../../LUFA/Drivers/USB/LowLevel/Template/Template_Endpoint_RW.c **** 	uint8_t  ErrorCode;
 880               		.loc 3 5 0
 881 001e E801      		movw r28,r16
 882 0020 2197      		sbiw r28,1
 883               	.LVL73:
 884 0022 CC0D      		add r28,r12
 885 0024 DD1D      		adc r29,r13
 886               	.LVL74:
 887               	.L94:
  51:../../LUFA/Drivers/USB/LowLevel/Template/Template_Endpoint_RW.c **** 	{
 888               		.loc 3 51 0 discriminator 1
 889 0026 0115      		cp r16,__zero_reg__
 890 0028 1105      		cpc r17,__zero_reg__
 891 002a 01F0      		breq .L103
 892               	.LBB314:
 893               	.LBB315:
 358:../../LUFA/Drivers/USB/LowLevel/Endpoint.h **** 			}
 894               		.loc 2 358 0
 895 002c 8091 E800 		lds r24,232
 896               	.LBE315:
 897               	.LBE314:
  53:../../LUFA/Drivers/USB/LowLevel/Template/Template_Endpoint_RW.c **** 		{
 898               		.loc 3 53 0
 899 0030 85FD      		sbrc r24,5
 900 0032 00C0      		rjmp .L95
 901               	.LBB316:
 902               	.LBB317:
 454:../../LUFA/Drivers/USB/LowLevel/Endpoint.h **** 				#else
 903               		.loc 2 454 0
 904 0034 8091 E800 		lds r24,232
 905 0038 8E77      		andi r24,lo8(126)
 906 003a 8093 E800 		sts 232,r24
 907               	.LBE317:
 908               	.LBE316:
  58:../../LUFA/Drivers/USB/LowLevel/Template/Template_Endpoint_RW.c **** 			  return ENDPOINT_RWSTREAM_CallbackAborted;
 909               		.loc 3 58 0
 910 003e E114      		cp r14,__zero_reg__
 911 0040 F104      		cpc r15,__zero_reg__
 912 0042 01F4      		brne .L96
 913               	.L98:
  62:../../LUFA/Drivers/USB/LowLevel/Template/Template_Endpoint_RW.c **** 			  return ErrorCode;
 914               		.loc 3 62 0
 915 0044 0E94 0000 		call Endpoint_WaitUntilReady
 916               	.LVL75:
 917 0048 8823      		tst r24
 918 004a 01F0      		breq .L94
 919 004c 00C0      		rjmp .L93
 920               	.LVL76:
 921               	.L96:
  58:../../LUFA/Drivers/USB/LowLevel/Template/Template_Endpoint_RW.c **** 			  return ENDPOINT_RWSTREAM_CallbackAborted;
 922               		.loc 3 58 0 discriminator 1
 923 004e F701      		movw r30,r14
 924 0050 0995      		icall
 925               	.LVL77:
 926 0052 8130      		cpi r24,lo8(1)
 927 0054 01F4      		brne .L98
  59:../../LUFA/Drivers/USB/LowLevel/Template/Template_Endpoint_RW.c **** 			#endif
 928               		.loc 3 59 0
 929 0056 85E0      		ldi r24,lo8(5)
 930 0058 00C0      		rjmp .L93
 931               	.L95:
 932               	.LVL78:
  67:../../LUFA/Drivers/USB/LowLevel/Template/Template_Endpoint_RW.c **** 			Length--;
 933               		.loc 3 67 0
 934 005a 8881      		ld r24,Y
 935               	.LVL79:
 936               	.LBB318:
 937               	.LBB319:
 562:../../LUFA/Drivers/USB/LowLevel/Endpoint.h **** 			}
 938               		.loc 2 562 0
 939 005c 8093 F100 		sts 241,r24
 940               	.LBE319:
 941               	.LBE318:
  68:../../LUFA/Drivers/USB/LowLevel/Template/Template_Endpoint_RW.c **** 		}
 942               		.loc 3 68 0
 943 0060 0150      		subi r16,1
 944 0062 1109      		sbc r17,__zero_reg__
 945               	.LVL80:
  67:../../LUFA/Drivers/USB/LowLevel/Template/Template_Endpoint_RW.c **** 			Length--;
 946               		.loc 3 67 0
 947 0064 2197      		sbiw r28,1
 948               	.LVL81:
 949 0066 00C0      		rjmp .L94
 950               	.LVL82:
 951               	.L103:
  72:../../LUFA/Drivers/USB/LowLevel/Template/Template_Endpoint_RW.c **** }
 952               		.loc 3 72 0
 953 0068 80E0      		ldi r24,0
 954               	.LVL83:
 955               	.L93:
 956               	/* epilogue start */
 957               		.loc 3 73 0
 958 006a DF91      		pop r29
 959 006c CF91      		pop r28
 960 006e 1F91      		pop r17
 961 0070 0F91      		pop r16
 962               	.LVL84:
 963 0072 FF90      		pop r15
 964 0074 EF90      		pop r14
 965               	.LVL85:
 966 0076 DF90      		pop r13
 967 0078 CF90      		pop r12
 968               	.LVL86:
 969 007a 0895      		ret
 970               		.cfi_endproc
 971               	.LFE73:
 973               		.section	.text.Endpoint_Write_EStream_BE,"ax",@progbits
 974               	.global	Endpoint_Write_EStream_BE
 976               	Endpoint_Write_EStream_BE:
 977               	.LFB74:
   4:../../LUFA/Drivers/USB/LowLevel/Template/Template_Endpoint_RW.c **** 	uint8_t* DataStream = ((uint8_t*)Buffer + TEMPLATE_BUFFER_OFFSET(Length));
 978               		.loc 3 4 0
 979               		.cfi_startproc
 980               	.LVL87:
 981 0000 CF92      		push r12
 982               	.LCFI32:
 983               		.cfi_def_cfa_offset 3
 984               		.cfi_offset 12, -2
 985 0002 DF92      		push r13
 986               	.LCFI33:
 987               		.cfi_def_cfa_offset 4
 988               		.cfi_offset 13, -3
 989 0004 EF92      		push r14
 990               	.LCFI34:
 991               		.cfi_def_cfa_offset 5
 992               		.cfi_offset 14, -4
 993 0006 FF92      		push r15
 994               	.LCFI35:
 995               		.cfi_def_cfa_offset 6
 996               		.cfi_offset 15, -5
 997 0008 0F93      		push r16
 998               	.LCFI36:
 999               		.cfi_def_cfa_offset 7
 1000               		.cfi_offset 16, -6
 1001 000a 1F93      		push r17
 1002               	.LCFI37:
 1003               		.cfi_def_cfa_offset 8
 1004               		.cfi_offset 17, -7
 1005 000c CF93      		push r28
 1006               	.LCFI38:
 1007               		.cfi_def_cfa_offset 9
 1008               		.cfi_offset 28, -8
 1009 000e DF93      		push r29
 1010               	.LCFI39:
 1011               		.cfi_def_cfa_offset 10
 1012               		.cfi_offset 29, -9
 1013               	/* prologue: function */
 1014               	/* frame size = 0 */
 1015               	/* stack size = 8 */
 1016               	.L__stack_usage = 8
 1017 0010 6C01      		movw r12,r24
 1018 0012 8B01      		movw r16,r22
 1019 0014 7A01      		movw r14,r20
 1020               	.LVL88:
   8:../../LUFA/Drivers/USB/LowLevel/Template/Template_Endpoint_RW.c **** 	  return ErrorCode;
 1021               		.loc 3 8 0
 1022 0016 0E94 0000 		call Endpoint_WaitUntilReady
 1023               	.LVL89:
 1024 001a 8111      		cpse r24,__zero_reg__
 1025 001c 00C0      		rjmp .L105
   5:../../LUFA/Drivers/USB/LowLevel/Template/Template_Endpoint_RW.c **** 	uint8_t  ErrorCode;
 1026               		.loc 3 5 0
 1027 001e E801      		movw r28,r16
 1028 0020 2197      		sbiw r28,1
 1029               	.LVL90:
 1030 0022 CC0D      		add r28,r12
 1031 0024 DD1D      		adc r29,r13
 1032               	.LVL91:
 1033               	.L106:
  51:../../LUFA/Drivers/USB/LowLevel/Template/Template_Endpoint_RW.c **** 	{
 1034               		.loc 3 51 0 discriminator 1
 1035 0026 0115      		cp r16,__zero_reg__
 1036 0028 1105      		cpc r17,__zero_reg__
 1037 002a 01F0      		breq .L115
 1038               	.LBB320:
 1039               	.LBB321:
 358:../../LUFA/Drivers/USB/LowLevel/Endpoint.h **** 			}
 1040               		.loc 2 358 0
 1041 002c 8091 E800 		lds r24,232
 1042               	.LBE321:
 1043               	.LBE320:
  53:../../LUFA/Drivers/USB/LowLevel/Template/Template_Endpoint_RW.c **** 		{
 1044               		.loc 3 53 0
 1045 0030 85FD      		sbrc r24,5
 1046 0032 00C0      		rjmp .L107
 1047               	.LBB322:
 1048               	.LBB323:
 454:../../LUFA/Drivers/USB/LowLevel/Endpoint.h **** 				#else
 1049               		.loc 2 454 0
 1050 0034 8091 E800 		lds r24,232
 1051 0038 8E77      		andi r24,lo8(126)
 1052 003a 8093 E800 		sts 232,r24
 1053               	.LBE323:
 1054               	.LBE322:
  58:../../LUFA/Drivers/USB/LowLevel/Template/Template_Endpoint_RW.c **** 			  return ENDPOINT_RWSTREAM_CallbackAborted;
 1055               		.loc 3 58 0
 1056 003e E114      		cp r14,__zero_reg__
 1057 0040 F104      		cpc r15,__zero_reg__
 1058 0042 01F4      		brne .L108
 1059               	.L110:
  62:../../LUFA/Drivers/USB/LowLevel/Template/Template_Endpoint_RW.c **** 			  return ErrorCode;
 1060               		.loc 3 62 0
 1061 0044 0E94 0000 		call Endpoint_WaitUntilReady
 1062               	.LVL92:
 1063 0048 8823      		tst r24
 1064 004a 01F0      		breq .L106
 1065 004c 00C0      		rjmp .L105
 1066               	.LVL93:
 1067               	.L108:
  58:../../LUFA/Drivers/USB/LowLevel/Template/Template_Endpoint_RW.c **** 			  return ENDPOINT_RWSTREAM_CallbackAborted;
 1068               		.loc 3 58 0 discriminator 1
 1069 004e F701      		movw r30,r14
 1070 0050 0995      		icall
 1071               	.LVL94:
 1072 0052 8130      		cpi r24,lo8(1)
 1073 0054 01F4      		brne .L110
  59:../../LUFA/Drivers/USB/LowLevel/Template/Template_Endpoint_RW.c **** 			#endif
 1074               		.loc 3 59 0
 1075 0056 85E0      		ldi r24,lo8(5)
 1076 0058 00C0      		rjmp .L105
 1077               	.L107:
  67:../../LUFA/Drivers/USB/LowLevel/Template/Template_Endpoint_RW.c **** 			Length--;
 1078               		.loc 3 67 0
 1079 005a 6E01      		movw r12,r28
 1080 005c F1E0      		ldi r31,1
 1081 005e CF1A      		sub r12,r31
 1082 0060 D108      		sbc r13,__zero_reg__
 1083               	.LVL95:
 1084 0062 CE01      		movw r24,r28
 1085 0064 0E94 0000 		call __eerd_byte_m8u2
 1086               	.LVL96:
 1087               	.LBB324:
 1088               	.LBB325:
 562:../../LUFA/Drivers/USB/LowLevel/Endpoint.h **** 			}
 1089               		.loc 2 562 0
 1090 0068 8093 F100 		sts 241,r24
 1091               	.LBE325:
 1092               	.LBE324:
  68:../../LUFA/Drivers/USB/LowLevel/Template/Template_Endpoint_RW.c **** 		}
 1093               		.loc 3 68 0
 1094 006c 0150      		subi r16,1
 1095 006e 1109      		sbc r17,__zero_reg__
 1096               	.LVL97:
  67:../../LUFA/Drivers/USB/LowLevel/Template/Template_Endpoint_RW.c **** 			Length--;
 1097               		.loc 3 67 0
 1098 0070 E601      		movw r28,r12
 1099 0072 00C0      		rjmp .L106
 1100               	.LVL98:
 1101               	.L115:
  72:../../LUFA/Drivers/USB/LowLevel/Template/Template_Endpoint_RW.c **** }
 1102               		.loc 3 72 0
 1103 0074 80E0      		ldi r24,0
 1104               	.LVL99:
 1105               	.L105:
 1106               	/* epilogue start */
 1107               		.loc 3 73 0
 1108 0076 DF91      		pop r29
 1109 0078 CF91      		pop r28
 1110 007a 1F91      		pop r17
 1111 007c 0F91      		pop r16
 1112               	.LVL100:
 1113 007e FF90      		pop r15
 1114 0080 EF90      		pop r14
 1115               	.LVL101:
 1116 0082 DF90      		pop r13
 1117 0084 CF90      		pop r12
 1118 0086 0895      		ret
 1119               		.cfi_endproc
 1120               	.LFE74:
 1122               		.section	.text.Endpoint_Write_PStream_BE,"ax",@progbits
 1123               	.global	Endpoint_Write_PStream_BE
 1125               	Endpoint_Write_PStream_BE:
 1126               	.LFB75:
   4:../../LUFA/Drivers/USB/LowLevel/Template/Template_Endpoint_RW.c **** 	uint8_t* DataStream = ((uint8_t*)Buffer + TEMPLATE_BUFFER_OFFSET(Length));
 1127               		.loc 3 4 0
 1128               		.cfi_startproc
 1129               	.LVL102:
 1130 0000 CF92      		push r12
 1131               	.LCFI40:
 1132               		.cfi_def_cfa_offset 3
 1133               		.cfi_offset 12, -2
 1134 0002 DF92      		push r13
 1135               	.LCFI41:
 1136               		.cfi_def_cfa_offset 4
 1137               		.cfi_offset 13, -3
 1138 0004 EF92      		push r14
 1139               	.LCFI42:
 1140               		.cfi_def_cfa_offset 5
 1141               		.cfi_offset 14, -4
 1142 0006 FF92      		push r15
 1143               	.LCFI43:
 1144               		.cfi_def_cfa_offset 6
 1145               		.cfi_offset 15, -5
 1146 0008 0F93      		push r16
 1147               	.LCFI44:
 1148               		.cfi_def_cfa_offset 7
 1149               		.cfi_offset 16, -6
 1150 000a 1F93      		push r17
 1151               	.LCFI45:
 1152               		.cfi_def_cfa_offset 8
 1153               		.cfi_offset 17, -7
 1154 000c CF93      		push r28
 1155               	.LCFI46:
 1156               		.cfi_def_cfa_offset 9
 1157               		.cfi_offset 28, -8
 1158 000e DF93      		push r29
 1159               	.LCFI47:
 1160               		.cfi_def_cfa_offset 10
 1161               		.cfi_offset 29, -9
 1162               	/* prologue: function */
 1163               	/* frame size = 0 */
 1164               	/* stack size = 8 */
 1165               	.L__stack_usage = 8
 1166 0010 6C01      		movw r12,r24
 1167 0012 8B01      		movw r16,r22
 1168 0014 7A01      		movw r14,r20
 1169               	.LVL103:
   8:../../LUFA/Drivers/USB/LowLevel/Template/Template_Endpoint_RW.c **** 	  return ErrorCode;
 1170               		.loc 3 8 0
 1171 0016 0E94 0000 		call Endpoint_WaitUntilReady
 1172               	.LVL104:
 1173 001a 8111      		cpse r24,__zero_reg__
 1174 001c 00C0      		rjmp .L117
   5:../../LUFA/Drivers/USB/LowLevel/Template/Template_Endpoint_RW.c **** 	uint8_t  ErrorCode;
 1175               		.loc 3 5 0
 1176 001e E801      		movw r28,r16
 1177 0020 2197      		sbiw r28,1
 1178               	.LVL105:
 1179 0022 CC0D      		add r28,r12
 1180 0024 DD1D      		adc r29,r13
 1181               	.LVL106:
 1182               	.L118:
  51:../../LUFA/Drivers/USB/LowLevel/Template/Template_Endpoint_RW.c **** 	{
 1183               		.loc 3 51 0 discriminator 1
 1184 0026 0115      		cp r16,__zero_reg__
 1185 0028 1105      		cpc r17,__zero_reg__
 1186 002a 01F0      		breq .L127
 1187               	.LBB326:
 1188               	.LBB327:
 358:../../LUFA/Drivers/USB/LowLevel/Endpoint.h **** 			}
 1189               		.loc 2 358 0
 1190 002c 8091 E800 		lds r24,232
 1191               	.LBE327:
 1192               	.LBE326:
  53:../../LUFA/Drivers/USB/LowLevel/Template/Template_Endpoint_RW.c **** 		{
 1193               		.loc 3 53 0
 1194 0030 85FD      		sbrc r24,5
 1195 0032 00C0      		rjmp .L119
 1196               	.LBB328:
 1197               	.LBB329:
 454:../../LUFA/Drivers/USB/LowLevel/Endpoint.h **** 				#else
 1198               		.loc 2 454 0
 1199 0034 8091 E800 		lds r24,232
 1200 0038 8E77      		andi r24,lo8(126)
 1201 003a 8093 E800 		sts 232,r24
 1202               	.LBE329:
 1203               	.LBE328:
  58:../../LUFA/Drivers/USB/LowLevel/Template/Template_Endpoint_RW.c **** 			  return ENDPOINT_RWSTREAM_CallbackAborted;
 1204               		.loc 3 58 0
 1205 003e E114      		cp r14,__zero_reg__
 1206 0040 F104      		cpc r15,__zero_reg__
 1207 0042 01F4      		brne .L120
 1208               	.L122:
  62:../../LUFA/Drivers/USB/LowLevel/Template/Template_Endpoint_RW.c **** 			  return ErrorCode;
 1209               		.loc 3 62 0
 1210 0044 0E94 0000 		call Endpoint_WaitUntilReady
 1211               	.LVL107:
 1212 0048 8823      		tst r24
 1213 004a 01F0      		breq .L118
 1214 004c 00C0      		rjmp .L117
 1215               	.LVL108:
 1216               	.L120:
  58:../../LUFA/Drivers/USB/LowLevel/Template/Template_Endpoint_RW.c **** 			  return ENDPOINT_RWSTREAM_CallbackAborted;
 1217               		.loc 3 58 0 discriminator 1
 1218 004e F701      		movw r30,r14
 1219 0050 0995      		icall
 1220               	.LVL109:
 1221 0052 8130      		cpi r24,lo8(1)
 1222 0054 01F4      		brne .L122
  59:../../LUFA/Drivers/USB/LowLevel/Template/Template_Endpoint_RW.c **** 			#endif
 1223               		.loc 3 59 0
 1224 0056 85E0      		ldi r24,lo8(5)
 1225 0058 00C0      		rjmp .L117
 1226               	.L119:
 1227               	.LBB330:
  67:../../LUFA/Drivers/USB/LowLevel/Template/Template_Endpoint_RW.c **** 			Length--;
 1228               		.loc 3 67 0
 1229 005a CE01      		movw r24,r28
 1230 005c 0197      		sbiw r24,1
 1231               	.LVL110:
 1232 005e FE01      		movw r30,r28
 1233               	/* #APP */
 1234               	 ;  67 "../../LUFA/Drivers/USB/LowLevel/Template/Template_Endpoint_RW.c" 1
 1235 0060 C491      		lpm r28, Z
 1236               		
 1237               	 ;  0 "" 2
 1238               	.LVL111:
 1239               	/* #NOAPP */
 1240               	.LBE330:
 1241               	.LBB331:
 1242               	.LBB332:
 562:../../LUFA/Drivers/USB/LowLevel/Endpoint.h **** 			}
 1243               		.loc 2 562 0
 1244 0062 C093 F100 		sts 241,r28
 1245               	.LBE332:
 1246               	.LBE331:
  68:../../LUFA/Drivers/USB/LowLevel/Template/Template_Endpoint_RW.c **** 		}
 1247               		.loc 3 68 0
 1248 0066 0150      		subi r16,1
 1249 0068 1109      		sbc r17,__zero_reg__
 1250               	.LVL112:
 1251               	.LBB333:
  67:../../LUFA/Drivers/USB/LowLevel/Template/Template_Endpoint_RW.c **** 			Length--;
 1252               		.loc 3 67 0
 1253 006a EC01      		movw r28,r24
 1254               	.LVL113:
 1255 006c 00C0      		rjmp .L118
 1256               	.LVL114:
 1257               	.L127:
 1258               	.LBE333:
  72:../../LUFA/Drivers/USB/LowLevel/Template/Template_Endpoint_RW.c **** }
 1259               		.loc 3 72 0
 1260 006e 80E0      		ldi r24,0
 1261               	.LVL115:
 1262               	.L117:
 1263               	/* epilogue start */
 1264               		.loc 3 73 0
 1265 0070 DF91      		pop r29
 1266 0072 CF91      		pop r28
 1267 0074 1F91      		pop r17
 1268 0076 0F91      		pop r16
 1269               	.LVL116:
 1270 0078 FF90      		pop r15
 1271 007a EF90      		pop r14
 1272               	.LVL117:
 1273 007c DF90      		pop r13
 1274 007e CF90      		pop r12
 1275               	.LVL118:
 1276 0080 0895      		ret
 1277               		.cfi_endproc
 1278               	.LFE75:
 1280               		.section	.text.Endpoint_Read_Stream_LE,"ax",@progbits
 1281               	.global	Endpoint_Read_Stream_LE
 1283               	Endpoint_Read_Stream_LE:
 1284               	.LFB76:
   4:../../LUFA/Drivers/USB/LowLevel/Template/Template_Endpoint_RW.c **** 	uint8_t* DataStream = ((uint8_t*)Buffer + TEMPLATE_BUFFER_OFFSET(Length));
 1285               		.loc 3 4 0
 1286               		.cfi_startproc
 1287               	.LVL119:
 1288 0000 EF92      		push r14
 1289               	.LCFI48:
 1290               		.cfi_def_cfa_offset 3
 1291               		.cfi_offset 14, -2
 1292 0002 FF92      		push r15
 1293               	.LCFI49:
 1294               		.cfi_def_cfa_offset 4
 1295               		.cfi_offset 15, -3
 1296 0004 0F93      		push r16
 1297               	.LCFI50:
 1298               		.cfi_def_cfa_offset 5
 1299               		.cfi_offset 16, -4
 1300 0006 1F93      		push r17
 1301               	.LCFI51:
 1302               		.cfi_def_cfa_offset 6
 1303               		.cfi_offset 17, -5
 1304 0008 CF93      		push r28
 1305               	.LCFI52:
 1306               		.cfi_def_cfa_offset 7
 1307               		.cfi_offset 28, -6
 1308 000a DF93      		push r29
 1309               	.LCFI53:
 1310               		.cfi_def_cfa_offset 8
 1311               		.cfi_offset 29, -7
 1312               	/* prologue: function */
 1313               	/* frame size = 0 */
 1314               	/* stack size = 6 */
 1315               	.L__stack_usage = 6
 1316 000c EC01      		movw r28,r24
 1317 000e 8B01      		movw r16,r22
 1318 0010 7A01      		movw r14,r20
 1319               	.LVL120:
 1320               	.L134:
  62:../../LUFA/Drivers/USB/LowLevel/Template/Template_Endpoint_RW.c **** 			  return ErrorCode;
 1321               		.loc 3 62 0
 1322 0012 0E94 0000 		call Endpoint_WaitUntilReady
 1323               	.LVL121:
 1324 0016 8111      		cpse r24,__zero_reg__
 1325 0018 00C0      		rjmp .L129
 1326               	.LVL122:
 1327               	.L130:
  51:../../LUFA/Drivers/USB/LowLevel/Template/Template_Endpoint_RW.c **** 	{
 1328               		.loc 3 51 0 discriminator 1
 1329 001a 0115      		cp r16,__zero_reg__
 1330 001c 1105      		cpc r17,__zero_reg__
 1331 001e 01F0      		breq .L140
 1332               	.LBB334:
 1333               	.LBB335:
 358:../../LUFA/Drivers/USB/LowLevel/Endpoint.h **** 			}
 1334               		.loc 2 358 0
 1335 0020 8091 E800 		lds r24,232
 1336               	.LBE335:
 1337               	.LBE334:
  53:../../LUFA/Drivers/USB/LowLevel/Template/Template_Endpoint_RW.c **** 		{
 1338               		.loc 3 53 0
 1339 0024 85FD      		sbrc r24,5
 1340 0026 00C0      		rjmp .L131
 1341               	.LBB336:
 1342               	.LBB337:
 469:../../LUFA/Drivers/USB/LowLevel/Endpoint.h **** 				#else
 1343               		.loc 2 469 0
 1344 0028 8091 E800 		lds r24,232
 1345 002c 8B77      		andi r24,lo8(123)
 1346 002e 8093 E800 		sts 232,r24
 1347               	.LBE337:
 1348               	.LBE336:
  58:../../LUFA/Drivers/USB/LowLevel/Template/Template_Endpoint_RW.c **** 			  return ENDPOINT_RWSTREAM_CallbackAborted;
 1349               		.loc 3 58 0
 1350 0032 E114      		cp r14,__zero_reg__
 1351 0034 F104      		cpc r15,__zero_reg__
 1352 0036 01F0      		breq .L134
  58:../../LUFA/Drivers/USB/LowLevel/Template/Template_Endpoint_RW.c **** 			  return ENDPOINT_RWSTREAM_CallbackAborted;
 1353               		.loc 3 58 0 is_stmt 0 discriminator 1
 1354 0038 F701      		movw r30,r14
 1355 003a 0995      		icall
 1356               	.LVL123:
 1357 003c 8130      		cpi r24,lo8(1)
 1358 003e 01F4      		brne .L134
  59:../../LUFA/Drivers/USB/LowLevel/Template/Template_Endpoint_RW.c **** 			#endif
 1359               		.loc 3 59 0 is_stmt 1
 1360 0040 85E0      		ldi r24,lo8(5)
 1361 0042 00C0      		rjmp .L129
 1362               	.L131:
 1363               	.LVL124:
 1364               	.LBB338:
 1365               	.LBB339:
 550:../../LUFA/Drivers/USB/LowLevel/Endpoint.h **** 			}
 1366               		.loc 2 550 0
 1367 0044 8091 F100 		lds r24,241
 1368               	.LBE339:
 1369               	.LBE338:
  67:../../LUFA/Drivers/USB/LowLevel/Template/Template_Endpoint_RW.c **** 			Length--;
 1370               		.loc 3 67 0
 1371 0048 8883      		st Y,r24
  68:../../LUFA/Drivers/USB/LowLevel/Template/Template_Endpoint_RW.c **** 		}
 1372               		.loc 3 68 0
 1373 004a 0150      		subi r16,1
 1374 004c 1109      		sbc r17,__zero_reg__
 1375               	.LVL125:
  67:../../LUFA/Drivers/USB/LowLevel/Template/Template_Endpoint_RW.c **** 			Length--;
 1376               		.loc 3 67 0
 1377 004e 2196      		adiw r28,1
 1378               	.LVL126:
 1379 0050 00C0      		rjmp .L130
 1380               	.L140:
  72:../../LUFA/Drivers/USB/LowLevel/Template/Template_Endpoint_RW.c **** }
 1381               		.loc 3 72 0
 1382 0052 80E0      		ldi r24,0
 1383               	.LVL127:
 1384               	.L129:
 1385               	/* epilogue start */
 1386               		.loc 3 73 0
 1387 0054 DF91      		pop r29
 1388 0056 CF91      		pop r28
 1389 0058 1F91      		pop r17
 1390 005a 0F91      		pop r16
 1391               	.LVL128:
 1392 005c FF90      		pop r15
 1393 005e EF90      		pop r14
 1394               	.LVL129:
 1395 0060 0895      		ret
 1396               		.cfi_endproc
 1397               	.LFE76:
 1399               		.section	.text.Endpoint_Read_EStream_LE,"ax",@progbits
 1400               	.global	Endpoint_Read_EStream_LE
 1402               	Endpoint_Read_EStream_LE:
 1403               	.LFB77:
   4:../../LUFA/Drivers/USB/LowLevel/Template/Template_Endpoint_RW.c **** 	uint8_t* DataStream = ((uint8_t*)Buffer + TEMPLATE_BUFFER_OFFSET(Length));
 1404               		.loc 3 4 0
 1405               		.cfi_startproc
 1406               	.LVL130:
 1407 0000 CF92      		push r12
 1408               	.LCFI54:
 1409               		.cfi_def_cfa_offset 3
 1410               		.cfi_offset 12, -2
 1411 0002 DF92      		push r13
 1412               	.LCFI55:
 1413               		.cfi_def_cfa_offset 4
 1414               		.cfi_offset 13, -3
 1415 0004 EF92      		push r14
 1416               	.LCFI56:
 1417               		.cfi_def_cfa_offset 5
 1418               		.cfi_offset 14, -4
 1419 0006 FF92      		push r15
 1420               	.LCFI57:
 1421               		.cfi_def_cfa_offset 6
 1422               		.cfi_offset 15, -5
 1423 0008 0F93      		push r16
 1424               	.LCFI58:
 1425               		.cfi_def_cfa_offset 7
 1426               		.cfi_offset 16, -6
 1427 000a 1F93      		push r17
 1428               	.LCFI59:
 1429               		.cfi_def_cfa_offset 8
 1430               		.cfi_offset 17, -7
 1431 000c CF93      		push r28
 1432               	.LCFI60:
 1433               		.cfi_def_cfa_offset 9
 1434               		.cfi_offset 28, -8
 1435 000e DF93      		push r29
 1436               	.LCFI61:
 1437               		.cfi_def_cfa_offset 10
 1438               		.cfi_offset 29, -9
 1439               	/* prologue: function */
 1440               	/* frame size = 0 */
 1441               	/* stack size = 8 */
 1442               	.L__stack_usage = 8
 1443 0010 EC01      		movw r28,r24
 1444 0012 8B01      		movw r16,r22
 1445 0014 7A01      		movw r14,r20
 1446               	.LVL131:
 1447               	.L147:
  62:../../LUFA/Drivers/USB/LowLevel/Template/Template_Endpoint_RW.c **** 			  return ErrorCode;
 1448               		.loc 3 62 0
 1449 0016 0E94 0000 		call Endpoint_WaitUntilReady
 1450               	.LVL132:
 1451 001a 8111      		cpse r24,__zero_reg__
 1452 001c 00C0      		rjmp .L142
 1453               	.LVL133:
 1454               	.L143:
  51:../../LUFA/Drivers/USB/LowLevel/Template/Template_Endpoint_RW.c **** 	{
 1455               		.loc 3 51 0 discriminator 1
 1456 001e 0115      		cp r16,__zero_reg__
 1457 0020 1105      		cpc r17,__zero_reg__
 1458 0022 01F0      		breq .L153
 1459               	.LBB340:
 1460               	.LBB341:
 358:../../LUFA/Drivers/USB/LowLevel/Endpoint.h **** 			}
 1461               		.loc 2 358 0
 1462 0024 8091 E800 		lds r24,232
 1463               	.LBE341:
 1464               	.LBE340:
  53:../../LUFA/Drivers/USB/LowLevel/Template/Template_Endpoint_RW.c **** 		{
 1465               		.loc 3 53 0
 1466 0028 85FD      		sbrc r24,5
 1467 002a 00C0      		rjmp .L144
 1468               	.LBB342:
 1469               	.LBB343:
 469:../../LUFA/Drivers/USB/LowLevel/Endpoint.h **** 				#else
 1470               		.loc 2 469 0
 1471 002c 8091 E800 		lds r24,232
 1472 0030 8B77      		andi r24,lo8(123)
 1473 0032 8093 E800 		sts 232,r24
 1474               	.LBE343:
 1475               	.LBE342:
  58:../../LUFA/Drivers/USB/LowLevel/Template/Template_Endpoint_RW.c **** 			  return ENDPOINT_RWSTREAM_CallbackAborted;
 1476               		.loc 3 58 0
 1477 0036 E114      		cp r14,__zero_reg__
 1478 0038 F104      		cpc r15,__zero_reg__
 1479 003a 01F0      		breq .L147
  58:../../LUFA/Drivers/USB/LowLevel/Template/Template_Endpoint_RW.c **** 			  return ENDPOINT_RWSTREAM_CallbackAborted;
 1480               		.loc 3 58 0 is_stmt 0 discriminator 1
 1481 003c F701      		movw r30,r14
 1482 003e 0995      		icall
 1483               	.LVL134:
 1484 0040 8130      		cpi r24,lo8(1)
 1485 0042 01F4      		brne .L147
  59:../../LUFA/Drivers/USB/LowLevel/Template/Template_Endpoint_RW.c **** 			#endif
 1486               		.loc 3 59 0 is_stmt 1
 1487 0044 85E0      		ldi r24,lo8(5)
 1488 0046 00C0      		rjmp .L142
 1489               	.L144:
 1490               	.LBB344:
 1491               	.LBB345:
 550:../../LUFA/Drivers/USB/LowLevel/Endpoint.h **** 			}
 1492               		.loc 2 550 0
 1493 0048 6091 F100 		lds r22,241
 1494               	.LBE345:
 1495               	.LBE344:
  67:../../LUFA/Drivers/USB/LowLevel/Template/Template_Endpoint_RW.c **** 			Length--;
 1496               		.loc 3 67 0
 1497 004c 6E01      		movw r12,r28
 1498 004e FFEF      		ldi r31,-1
 1499 0050 CF1A      		sub r12,r31
 1500 0052 DF0A      		sbc r13,r31
 1501               	.LVL135:
 1502 0054 CE01      		movw r24,r28
 1503 0056 0E94 0000 		call __eeupd_byte_m8u2
 1504               	.LVL136:
  68:../../LUFA/Drivers/USB/LowLevel/Template/Template_Endpoint_RW.c **** 		}
 1505               		.loc 3 68 0
 1506 005a 0150      		subi r16,1
 1507 005c 1109      		sbc r17,__zero_reg__
 1508               	.LVL137:
  67:../../LUFA/Drivers/USB/LowLevel/Template/Template_Endpoint_RW.c **** 			Length--;
 1509               		.loc 3 67 0
 1510 005e E601      		movw r28,r12
 1511 0060 00C0      		rjmp .L143
 1512               	.LVL138:
 1513               	.L153:
  72:../../LUFA/Drivers/USB/LowLevel/Template/Template_Endpoint_RW.c **** }
 1514               		.loc 3 72 0
 1515 0062 80E0      		ldi r24,0
 1516               	.LVL139:
 1517               	.L142:
 1518               	/* epilogue start */
 1519               		.loc 3 73 0
 1520 0064 DF91      		pop r29
 1521 0066 CF91      		pop r28
 1522 0068 1F91      		pop r17
 1523 006a 0F91      		pop r16
 1524               	.LVL140:
 1525 006c FF90      		pop r15
 1526 006e EF90      		pop r14
 1527               	.LVL141:
 1528 0070 DF90      		pop r13
 1529 0072 CF90      		pop r12
 1530 0074 0895      		ret
 1531               		.cfi_endproc
 1532               	.LFE77:
 1534               		.section	.text.Endpoint_Read_Stream_BE,"ax",@progbits
 1535               	.global	Endpoint_Read_Stream_BE
 1537               	Endpoint_Read_Stream_BE:
 1538               	.LFB78:
   4:../../LUFA/Drivers/USB/LowLevel/Template/Template_Endpoint_RW.c **** 	uint8_t* DataStream = ((uint8_t*)Buffer + TEMPLATE_BUFFER_OFFSET(Length));
 1539               		.loc 3 4 0
 1540               		.cfi_startproc
 1541               	.LVL142:
 1542 0000 CF92      		push r12
 1543               	.LCFI62:
 1544               		.cfi_def_cfa_offset 3
 1545               		.cfi_offset 12, -2
 1546 0002 DF92      		push r13
 1547               	.LCFI63:
 1548               		.cfi_def_cfa_offset 4
 1549               		.cfi_offset 13, -3
 1550 0004 EF92      		push r14
 1551               	.LCFI64:
 1552               		.cfi_def_cfa_offset 5
 1553               		.cfi_offset 14, -4
 1554 0006 FF92      		push r15
 1555               	.LCFI65:
 1556               		.cfi_def_cfa_offset 6
 1557               		.cfi_offset 15, -5
 1558 0008 0F93      		push r16
 1559               	.LCFI66:
 1560               		.cfi_def_cfa_offset 7
 1561               		.cfi_offset 16, -6
 1562 000a 1F93      		push r17
 1563               	.LCFI67:
 1564               		.cfi_def_cfa_offset 8
 1565               		.cfi_offset 17, -7
 1566 000c CF93      		push r28
 1567               	.LCFI68:
 1568               		.cfi_def_cfa_offset 9
 1569               		.cfi_offset 28, -8
 1570 000e DF93      		push r29
 1571               	.LCFI69:
 1572               		.cfi_def_cfa_offset 10
 1573               		.cfi_offset 29, -9
 1574               	/* prologue: function */
 1575               	/* frame size = 0 */
 1576               	/* stack size = 8 */
 1577               	.L__stack_usage = 8
 1578 0010 6C01      		movw r12,r24
 1579 0012 8B01      		movw r16,r22
 1580 0014 7A01      		movw r14,r20
 1581               	.LVL143:
   8:../../LUFA/Drivers/USB/LowLevel/Template/Template_Endpoint_RW.c **** 	  return ErrorCode;
 1582               		.loc 3 8 0
 1583 0016 0E94 0000 		call Endpoint_WaitUntilReady
 1584               	.LVL144:
 1585 001a 8111      		cpse r24,__zero_reg__
 1586 001c 00C0      		rjmp .L155
   5:../../LUFA/Drivers/USB/LowLevel/Template/Template_Endpoint_RW.c **** 	uint8_t  ErrorCode;
 1587               		.loc 3 5 0
 1588 001e E801      		movw r28,r16
 1589 0020 2197      		sbiw r28,1
 1590               	.LVL145:
 1591 0022 CC0D      		add r28,r12
 1592 0024 DD1D      		adc r29,r13
 1593               	.LVL146:
 1594               	.L156:
  51:../../LUFA/Drivers/USB/LowLevel/Template/Template_Endpoint_RW.c **** 	{
 1595               		.loc 3 51 0 discriminator 1
 1596 0026 0115      		cp r16,__zero_reg__
 1597 0028 1105      		cpc r17,__zero_reg__
 1598 002a 01F0      		breq .L165
 1599               	.LBB346:
 1600               	.LBB347:
 358:../../LUFA/Drivers/USB/LowLevel/Endpoint.h **** 			}
 1601               		.loc 2 358 0
 1602 002c 8091 E800 		lds r24,232
 1603               	.LBE347:
 1604               	.LBE346:
  53:../../LUFA/Drivers/USB/LowLevel/Template/Template_Endpoint_RW.c **** 		{
 1605               		.loc 3 53 0
 1606 0030 85FD      		sbrc r24,5
 1607 0032 00C0      		rjmp .L157
 1608               	.LBB348:
 1609               	.LBB349:
 469:../../LUFA/Drivers/USB/LowLevel/Endpoint.h **** 				#else
 1610               		.loc 2 469 0
 1611 0034 8091 E800 		lds r24,232
 1612 0038 8B77      		andi r24,lo8(123)
 1613 003a 8093 E800 		sts 232,r24
 1614               	.LBE349:
 1615               	.LBE348:
  58:../../LUFA/Drivers/USB/LowLevel/Template/Template_Endpoint_RW.c **** 			  return ENDPOINT_RWSTREAM_CallbackAborted;
 1616               		.loc 3 58 0
 1617 003e E114      		cp r14,__zero_reg__
 1618 0040 F104      		cpc r15,__zero_reg__
 1619 0042 01F4      		brne .L158
 1620               	.L160:
  62:../../LUFA/Drivers/USB/LowLevel/Template/Template_Endpoint_RW.c **** 			  return ErrorCode;
 1621               		.loc 3 62 0
 1622 0044 0E94 0000 		call Endpoint_WaitUntilReady
 1623               	.LVL147:
 1624 0048 8823      		tst r24
 1625 004a 01F0      		breq .L156
 1626 004c 00C0      		rjmp .L155
 1627               	.LVL148:
 1628               	.L158:
  58:../../LUFA/Drivers/USB/LowLevel/Template/Template_Endpoint_RW.c **** 			  return ENDPOINT_RWSTREAM_CallbackAborted;
 1629               		.loc 3 58 0 discriminator 1
 1630 004e F701      		movw r30,r14
 1631 0050 0995      		icall
 1632               	.LVL149:
 1633 0052 8130      		cpi r24,lo8(1)
 1634 0054 01F4      		brne .L160
  59:../../LUFA/Drivers/USB/LowLevel/Template/Template_Endpoint_RW.c **** 			#endif
 1635               		.loc 3 59 0
 1636 0056 85E0      		ldi r24,lo8(5)
 1637 0058 00C0      		rjmp .L155
 1638               	.L157:
 1639               	.LVL150:
 1640               	.LBB350:
 1641               	.LBB351:
 550:../../LUFA/Drivers/USB/LowLevel/Endpoint.h **** 			}
 1642               		.loc 2 550 0
 1643 005a 8091 F100 		lds r24,241
 1644               	.LBE351:
 1645               	.LBE350:
  67:../../LUFA/Drivers/USB/LowLevel/Template/Template_Endpoint_RW.c **** 			Length--;
 1646               		.loc 3 67 0
 1647 005e 8883      		st Y,r24
  68:../../LUFA/Drivers/USB/LowLevel/Template/Template_Endpoint_RW.c **** 		}
 1648               		.loc 3 68 0
 1649 0060 0150      		subi r16,1
 1650 0062 1109      		sbc r17,__zero_reg__
 1651               	.LVL151:
  67:../../LUFA/Drivers/USB/LowLevel/Template/Template_Endpoint_RW.c **** 			Length--;
 1652               		.loc 3 67 0
 1653 0064 2197      		sbiw r28,1
 1654               	.LVL152:
 1655 0066 00C0      		rjmp .L156
 1656               	.L165:
  72:../../LUFA/Drivers/USB/LowLevel/Template/Template_Endpoint_RW.c **** }
 1657               		.loc 3 72 0
 1658 0068 80E0      		ldi r24,0
 1659               	.LVL153:
 1660               	.L155:
 1661               	/* epilogue start */
 1662               		.loc 3 73 0
 1663 006a DF91      		pop r29
 1664 006c CF91      		pop r28
 1665 006e 1F91      		pop r17
 1666 0070 0F91      		pop r16
 1667               	.LVL154:
 1668 0072 FF90      		pop r15
 1669 0074 EF90      		pop r14
 1670               	.LVL155:
 1671 0076 DF90      		pop r13
 1672 0078 CF90      		pop r12
 1673               	.LVL156:
 1674 007a 0895      		ret
 1675               		.cfi_endproc
 1676               	.LFE78:
 1678               		.section	.text.Endpoint_Read_EStream_BE,"ax",@progbits
 1679               	.global	Endpoint_Read_EStream_BE
 1681               	Endpoint_Read_EStream_BE:
 1682               	.LFB79:
   4:../../LUFA/Drivers/USB/LowLevel/Template/Template_Endpoint_RW.c **** 	uint8_t* DataStream = ((uint8_t*)Buffer + TEMPLATE_BUFFER_OFFSET(Length));
 1683               		.loc 3 4 0
 1684               		.cfi_startproc
 1685               	.LVL157:
 1686 0000 CF92      		push r12
 1687               	.LCFI70:
 1688               		.cfi_def_cfa_offset 3
 1689               		.cfi_offset 12, -2
 1690 0002 DF92      		push r13
 1691               	.LCFI71:
 1692               		.cfi_def_cfa_offset 4
 1693               		.cfi_offset 13, -3
 1694 0004 EF92      		push r14
 1695               	.LCFI72:
 1696               		.cfi_def_cfa_offset 5
 1697               		.cfi_offset 14, -4
 1698 0006 FF92      		push r15
 1699               	.LCFI73:
 1700               		.cfi_def_cfa_offset 6
 1701               		.cfi_offset 15, -5
 1702 0008 0F93      		push r16
 1703               	.LCFI74:
 1704               		.cfi_def_cfa_offset 7
 1705               		.cfi_offset 16, -6
 1706 000a 1F93      		push r17
 1707               	.LCFI75:
 1708               		.cfi_def_cfa_offset 8
 1709               		.cfi_offset 17, -7
 1710 000c CF93      		push r28
 1711               	.LCFI76:
 1712               		.cfi_def_cfa_offset 9
 1713               		.cfi_offset 28, -8
 1714 000e DF93      		push r29
 1715               	.LCFI77:
 1716               		.cfi_def_cfa_offset 10
 1717               		.cfi_offset 29, -9
 1718               	/* prologue: function */
 1719               	/* frame size = 0 */
 1720               	/* stack size = 8 */
 1721               	.L__stack_usage = 8
 1722 0010 6C01      		movw r12,r24
 1723 0012 8B01      		movw r16,r22
 1724 0014 7A01      		movw r14,r20
 1725               	.LVL158:
   8:../../LUFA/Drivers/USB/LowLevel/Template/Template_Endpoint_RW.c **** 	  return ErrorCode;
 1726               		.loc 3 8 0
 1727 0016 0E94 0000 		call Endpoint_WaitUntilReady
 1728               	.LVL159:
 1729 001a 8111      		cpse r24,__zero_reg__
 1730 001c 00C0      		rjmp .L167
   5:../../LUFA/Drivers/USB/LowLevel/Template/Template_Endpoint_RW.c **** 	uint8_t  ErrorCode;
 1731               		.loc 3 5 0
 1732 001e E801      		movw r28,r16
 1733 0020 2197      		sbiw r28,1
 1734               	.LVL160:
 1735 0022 CC0D      		add r28,r12
 1736 0024 DD1D      		adc r29,r13
 1737               	.LVL161:
 1738               	.L168:
  51:../../LUFA/Drivers/USB/LowLevel/Template/Template_Endpoint_RW.c **** 	{
 1739               		.loc 3 51 0 discriminator 1
 1740 0026 0115      		cp r16,__zero_reg__
 1741 0028 1105      		cpc r17,__zero_reg__
 1742 002a 01F0      		breq .L177
 1743               	.LBB352:
 1744               	.LBB353:
 358:../../LUFA/Drivers/USB/LowLevel/Endpoint.h **** 			}
 1745               		.loc 2 358 0
 1746 002c 8091 E800 		lds r24,232
 1747               	.LBE353:
 1748               	.LBE352:
  53:../../LUFA/Drivers/USB/LowLevel/Template/Template_Endpoint_RW.c **** 		{
 1749               		.loc 3 53 0
 1750 0030 85FD      		sbrc r24,5
 1751 0032 00C0      		rjmp .L169
 1752               	.LBB354:
 1753               	.LBB355:
 469:../../LUFA/Drivers/USB/LowLevel/Endpoint.h **** 				#else
 1754               		.loc 2 469 0
 1755 0034 8091 E800 		lds r24,232
 1756 0038 8B77      		andi r24,lo8(123)
 1757 003a 8093 E800 		sts 232,r24
 1758               	.LBE355:
 1759               	.LBE354:
  58:../../LUFA/Drivers/USB/LowLevel/Template/Template_Endpoint_RW.c **** 			  return ENDPOINT_RWSTREAM_CallbackAborted;
 1760               		.loc 3 58 0
 1761 003e E114      		cp r14,__zero_reg__
 1762 0040 F104      		cpc r15,__zero_reg__
 1763 0042 01F4      		brne .L170
 1764               	.L172:
  62:../../LUFA/Drivers/USB/LowLevel/Template/Template_Endpoint_RW.c **** 			  return ErrorCode;
 1765               		.loc 3 62 0
 1766 0044 0E94 0000 		call Endpoint_WaitUntilReady
 1767               	.LVL162:
 1768 0048 8823      		tst r24
 1769 004a 01F0      		breq .L168
 1770 004c 00C0      		rjmp .L167
 1771               	.LVL163:
 1772               	.L170:
  58:../../LUFA/Drivers/USB/LowLevel/Template/Template_Endpoint_RW.c **** 			  return ENDPOINT_RWSTREAM_CallbackAborted;
 1773               		.loc 3 58 0 discriminator 1
 1774 004e F701      		movw r30,r14
 1775 0050 0995      		icall
 1776               	.LVL164:
 1777 0052 8130      		cpi r24,lo8(1)
 1778 0054 01F4      		brne .L172
  59:../../LUFA/Drivers/USB/LowLevel/Template/Template_Endpoint_RW.c **** 			#endif
 1779               		.loc 3 59 0
 1780 0056 85E0      		ldi r24,lo8(5)
 1781 0058 00C0      		rjmp .L167
 1782               	.L169:
 1783               	.LBB356:
 1784               	.LBB357:
 550:../../LUFA/Drivers/USB/LowLevel/Endpoint.h **** 			}
 1785               		.loc 2 550 0
 1786 005a 6091 F100 		lds r22,241
 1787               	.LBE357:
 1788               	.LBE356:
  67:../../LUFA/Drivers/USB/LowLevel/Template/Template_Endpoint_RW.c **** 			Length--;
 1789               		.loc 3 67 0
 1790 005e 6E01      		movw r12,r28
 1791 0060 F1E0      		ldi r31,1
 1792 0062 CF1A      		sub r12,r31
 1793 0064 D108      		sbc r13,__zero_reg__
 1794               	.LVL165:
 1795 0066 CE01      		movw r24,r28
 1796 0068 0E94 0000 		call __eeupd_byte_m8u2
 1797               	.LVL166:
  68:../../LUFA/Drivers/USB/LowLevel/Template/Template_Endpoint_RW.c **** 		}
 1798               		.loc 3 68 0
 1799 006c 0150      		subi r16,1
 1800 006e 1109      		sbc r17,__zero_reg__
 1801               	.LVL167:
  67:../../LUFA/Drivers/USB/LowLevel/Template/Template_Endpoint_RW.c **** 			Length--;
 1802               		.loc 3 67 0
 1803 0070 E601      		movw r28,r12
 1804 0072 00C0      		rjmp .L168
 1805               	.LVL168:
 1806               	.L177:
  72:../../LUFA/Drivers/USB/LowLevel/Template/Template_Endpoint_RW.c **** }
 1807               		.loc 3 72 0
 1808 0074 80E0      		ldi r24,0
 1809               	.LVL169:
 1810               	.L167:
 1811               	/* epilogue start */
 1812               		.loc 3 73 0
 1813 0076 DF91      		pop r29
 1814 0078 CF91      		pop r28
 1815 007a 1F91      		pop r17
 1816 007c 0F91      		pop r16
 1817               	.LVL170:
 1818 007e FF90      		pop r15
 1819 0080 EF90      		pop r14
 1820               	.LVL171:
 1821 0082 DF90      		pop r13
 1822 0084 CF90      		pop r12
 1823 0086 0895      		ret
 1824               		.cfi_endproc
 1825               	.LFE79:
 1827               		.section	.text.Endpoint_Write_Control_Stream_LE,"ax",@progbits
 1828               	.global	Endpoint_Write_Control_Stream_LE
 1830               	Endpoint_Write_Control_Stream_LE:
 1831               	.LFB80:
 1832               		.file 4 "../../LUFA/Drivers/USB/LowLevel/Template/Template_Endpoint_Control_W.c"
   1:../../LUFA/Drivers/USB/LowLevel/Template/Template_Endpoint_Control_W.c **** uint8_t TEMPLATE_FUNC_NAME (const void* Buffer,
   2:../../LUFA/Drivers/USB/LowLevel/Template/Template_Endpoint_Control_W.c ****                             uint16_t Length)
   3:../../LUFA/Drivers/USB/LowLevel/Template/Template_Endpoint_Control_W.c **** {
 1833               		.loc 4 3 0
 1834               		.cfi_startproc
 1835               	.LVL172:
 1836               	/* prologue: function */
 1837               	/* frame size = 0 */
 1838               	/* stack size = 0 */
 1839               	.L__stack_usage = 0
   4:../../LUFA/Drivers/USB/LowLevel/Template/Template_Endpoint_Control_W.c **** 	uint8_t* DataStream     = ((uint8_t*)Buffer + TEMPLATE_BUFFER_OFFSET(Length));
   5:../../LUFA/Drivers/USB/LowLevel/Template/Template_Endpoint_Control_W.c **** 	bool     LastPacketFull = false;
   6:../../LUFA/Drivers/USB/LowLevel/Template/Template_Endpoint_Control_W.c **** 	
   7:../../LUFA/Drivers/USB/LowLevel/Template/Template_Endpoint_Control_W.c **** 	if (Length > USB_ControlRequest.wLength)
 1840               		.loc 4 7 0
 1841 0000 2091 0000 		lds r18,USB_ControlRequest+6
 1842 0004 3091 0000 		lds r19,USB_ControlRequest+6+1
 1843 0008 2617      		cp r18,r22
 1844 000a 3707      		cpc r19,r23
 1845 000c 00F0      		brlo .L193
   8:../../LUFA/Drivers/USB/LowLevel/Template/Template_Endpoint_Control_W.c **** 	  Length = USB_ControlRequest.wLength;
   9:../../LUFA/Drivers/USB/LowLevel/Template/Template_Endpoint_Control_W.c **** 	else if (!(Length))
 1846               		.loc 4 9 0
 1847 000e 6115      		cp r22,__zero_reg__
 1848 0010 7105      		cpc r23,__zero_reg__
 1849 0012 01F4      		brne .L179
 1850               	.LBB358:
 1851               	.LBB359:
 454:../../LUFA/Drivers/USB/LowLevel/Endpoint.h **** 				#else
 1852               		.loc 2 454 0
 1853 0014 2091 E800 		lds r18,232
 1854 0018 2E77      		andi r18,lo8(126)
 1855 001a 2093 E800 		sts 232,r18
 1856 001e 00C0      		rjmp .L179
 1857               	.L193:
 1858               	.LBE359:
 1859               	.LBE358:
 1860 0020 B901      		movw r22,r18
 1861               	.LVL173:
 1862               	.L179:
 1863 0022 30E0      		ldi r19,0
 1864               	.LVL174:
 1865               	.L185:
  10:../../LUFA/Drivers/USB/LowLevel/Template/Template_Endpoint_Control_W.c **** 	  Endpoint_ClearIN();
  11:../../LUFA/Drivers/USB/LowLevel/Template/Template_Endpoint_Control_W.c **** 
  12:../../LUFA/Drivers/USB/LowLevel/Template/Template_Endpoint_Control_W.c **** 	while (Length || LastPacketFull)
 1866               		.loc 4 12 0 discriminator 1
 1867 0024 6115      		cp r22,__zero_reg__
 1868 0026 7105      		cpc r23,__zero_reg__
 1869 0028 01F0      		breq .L205
 1870               	.L190:
 1871               	.LBB360:
 1872               	.LBB361:
 429:../../LUFA/Drivers/USB/LowLevel/Endpoint.h **** 			}
 1873               		.loc 2 429 0
 1874 002a 2091 E800 		lds r18,232
 1875               	.LBE361:
 1876               	.LBE360:
  13:../../LUFA/Drivers/USB/LowLevel/Template/Template_Endpoint_Control_W.c **** 	{
  14:../../LUFA/Drivers/USB/LowLevel/Template/Template_Endpoint_Control_W.c **** 		if (Endpoint_IsSETUPReceived())
 1877               		.loc 4 14 0
 1878 002e 23FD      		sbrc r18,3
 1879 0030 00C0      		rjmp .L194
 1880               	.LBB362:
 1881               	.LBB363:
 417:../../LUFA/Drivers/USB/LowLevel/Endpoint.h **** 			}
 1882               		.loc 2 417 0
 1883 0032 2091 E800 		lds r18,232
 1884               	.LBE363:
 1885               	.LBE362:
  15:../../LUFA/Drivers/USB/LowLevel/Template/Template_Endpoint_Control_W.c **** 		  return ENDPOINT_RWCSTREAM_HostAborted;
  16:../../LUFA/Drivers/USB/LowLevel/Template/Template_Endpoint_Control_W.c **** 
  17:../../LUFA/Drivers/USB/LowLevel/Template/Template_Endpoint_Control_W.c **** 		if (Endpoint_IsOUTReceived())
 1886               		.loc 4 17 0
 1887 0036 22FF      		sbrs r18,2
 1888 0038 00C0      		rjmp .L182
 1889               	.LVL175:
 1890               	.L192:
 1891               	.LBB364:
 1892               	.LBB365:
 417:../../LUFA/Drivers/USB/LowLevel/Endpoint.h **** 			}
 1893               		.loc 2 417 0 discriminator 1
 1894 003a 8091 E800 		lds r24,232
 1895               	.LBE365:
 1896               	.LBE364:
  18:../../LUFA/Drivers/USB/LowLevel/Template/Template_Endpoint_Control_W.c **** 		  break;
  19:../../LUFA/Drivers/USB/LowLevel/Template/Template_Endpoint_Control_W.c **** 		
  20:../../LUFA/Drivers/USB/LowLevel/Template/Template_Endpoint_Control_W.c **** 		if (USB_DeviceState == DEVICE_STATE_Unattached)
  21:../../LUFA/Drivers/USB/LowLevel/Template/Template_Endpoint_Control_W.c **** 		  return ENDPOINT_RWCSTREAM_DeviceDisconnected;
  22:../../LUFA/Drivers/USB/LowLevel/Template/Template_Endpoint_Control_W.c **** 		else if (USB_DeviceState == DEVICE_STATE_Suspended)
  23:../../LUFA/Drivers/USB/LowLevel/Template/Template_Endpoint_Control_W.c **** 		  return ENDPOINT_RWCSTREAM_BusSuspended;
  24:../../LUFA/Drivers/USB/LowLevel/Template/Template_Endpoint_Control_W.c **** 		  
  25:../../LUFA/Drivers/USB/LowLevel/Template/Template_Endpoint_Control_W.c **** 		if (Endpoint_IsINReady())
  26:../../LUFA/Drivers/USB/LowLevel/Template/Template_Endpoint_Control_W.c **** 		{
  27:../../LUFA/Drivers/USB/LowLevel/Template/Template_Endpoint_Control_W.c **** 			uint8_t BytesInEndpoint = Endpoint_BytesInEndpoint();
  28:../../LUFA/Drivers/USB/LowLevel/Template/Template_Endpoint_Control_W.c **** 		
  29:../../LUFA/Drivers/USB/LowLevel/Template/Template_Endpoint_Control_W.c **** 			while (Length && (BytesInEndpoint < USB_ControlEndpointSize))
  30:../../LUFA/Drivers/USB/LowLevel/Template/Template_Endpoint_Control_W.c **** 			{
  31:../../LUFA/Drivers/USB/LowLevel/Template/Template_Endpoint_Control_W.c **** 				TEMPLATE_TRANSFER_BYTE(DataStream);
  32:../../LUFA/Drivers/USB/LowLevel/Template/Template_Endpoint_Control_W.c **** 				Length--;
  33:../../LUFA/Drivers/USB/LowLevel/Template/Template_Endpoint_Control_W.c **** 				BytesInEndpoint++;
  34:../../LUFA/Drivers/USB/LowLevel/Template/Template_Endpoint_Control_W.c **** 			}
  35:../../LUFA/Drivers/USB/LowLevel/Template/Template_Endpoint_Control_W.c **** 			
  36:../../LUFA/Drivers/USB/LowLevel/Template/Template_Endpoint_Control_W.c **** 			LastPacketFull = (BytesInEndpoint == USB_ControlEndpointSize);
  37:../../LUFA/Drivers/USB/LowLevel/Template/Template_Endpoint_Control_W.c **** 			Endpoint_ClearIN();
  38:../../LUFA/Drivers/USB/LowLevel/Template/Template_Endpoint_Control_W.c **** 		}
  39:../../LUFA/Drivers/USB/LowLevel/Template/Template_Endpoint_Control_W.c **** 	}
  40:../../LUFA/Drivers/USB/LowLevel/Template/Template_Endpoint_Control_W.c **** 	
  41:../../LUFA/Drivers/USB/LowLevel/Template/Template_Endpoint_Control_W.c **** 	while (!(Endpoint_IsOUTReceived()))
 1897               		.loc 4 41 0 discriminator 1
 1898 003e 82FF      		sbrs r24,2
 1899 0040 00C0      		rjmp .L183
  42:../../LUFA/Drivers/USB/LowLevel/Template/Template_Endpoint_Control_W.c **** 	{
  43:../../LUFA/Drivers/USB/LowLevel/Template/Template_Endpoint_Control_W.c **** 		if (USB_DeviceState == DEVICE_STATE_Unattached)
  44:../../LUFA/Drivers/USB/LowLevel/Template/Template_Endpoint_Control_W.c **** 		  return ENDPOINT_RWCSTREAM_DeviceDisconnected;
  45:../../LUFA/Drivers/USB/LowLevel/Template/Template_Endpoint_Control_W.c **** 		else if (USB_DeviceState == DEVICE_STATE_Suspended)
  46:../../LUFA/Drivers/USB/LowLevel/Template/Template_Endpoint_Control_W.c **** 		  return ENDPOINT_RWCSTREAM_BusSuspended;
  47:../../LUFA/Drivers/USB/LowLevel/Template/Template_Endpoint_Control_W.c **** 	}
  48:../../LUFA/Drivers/USB/LowLevel/Template/Template_Endpoint_Control_W.c **** 
  49:../../LUFA/Drivers/USB/LowLevel/Template/Template_Endpoint_Control_W.c **** 	return ENDPOINT_RWCSTREAM_NoError;
 1900               		.loc 4 49 0
 1901 0042 80E0      		ldi r24,0
 1902 0044 0895      		ret
 1903               	.LVL176:
 1904               	.L182:
  20:../../LUFA/Drivers/USB/LowLevel/Template/Template_Endpoint_Control_W.c **** 		  return ENDPOINT_RWCSTREAM_DeviceDisconnected;
 1905               		.loc 4 20 0
 1906 0046 2EB3      		in r18,0x1e
 1907 0048 2223      		tst r18
 1908 004a 01F0      		breq .L197
  22:../../LUFA/Drivers/USB/LowLevel/Template/Template_Endpoint_Control_W.c **** 		  return ENDPOINT_RWCSTREAM_BusSuspended;
 1909               		.loc 4 22 0
 1910 004c 2EB3      		in r18,0x1e
 1911 004e 2530      		cpi r18,lo8(5)
 1912 0050 01F0      		breq .L198
 1913               	.LBB366:
 1914               	.LBB367:
 405:../../LUFA/Drivers/USB/LowLevel/Endpoint.h **** 			}
 1915               		.loc 2 405 0
 1916 0052 2091 E800 		lds r18,232
 1917               	.LBE367:
 1918               	.LBE366:
  25:../../LUFA/Drivers/USB/LowLevel/Template/Template_Endpoint_Control_W.c **** 		{
 1919               		.loc 4 25 0
 1920 0056 20FF      		sbrs r18,0
 1921 0058 00C0      		rjmp .L185
 1922               	.LBB368:
 1923               	.LBB369:
 1924               	.LBB370:
 266:../../LUFA/Drivers/USB/LowLevel/Endpoint.h **** 				#endif
 1925               		.loc 2 266 0
 1926 005a 2091 F200 		lds r18,242
 1927               	.LVL177:
 1928 005e FC01      		movw r30,r24
 1929               	.LVL178:
 1930               	.L186:
 1931 0060 CF01      		movw r24,r30
 1932               	.LVL179:
 1933               	.LBE370:
 1934               	.LBE369:
  29:../../LUFA/Drivers/USB/LowLevel/Template/Template_Endpoint_Control_W.c **** 			{
 1935               		.loc 4 29 0 discriminator 1
 1936 0062 6115      		cp r22,__zero_reg__
 1937 0064 7105      		cpc r23,__zero_reg__
 1938 0066 01F0      		breq .L187
  29:../../LUFA/Drivers/USB/LowLevel/Template/Template_Endpoint_Control_W.c **** 			{
 1939               		.loc 4 29 0 is_stmt 0 discriminator 2
 1940 0068 2830      		cpi r18,lo8(8)
 1941 006a 00F4      		brsh .L187
 1942               	.LVL180:
  31:../../LUFA/Drivers/USB/LowLevel/Template/Template_Endpoint_Control_W.c **** 				Length--;
 1943               		.loc 4 31 0 is_stmt 1
 1944 006c 8191      		ld r24,Z+
 1945               	.LVL181:
 1946               	.LBB371:
 1947               	.LBB372:
 562:../../LUFA/Drivers/USB/LowLevel/Endpoint.h **** 			}
 1948               		.loc 2 562 0
 1949 006e 8093 F100 		sts 241,r24
 1950               	.LBE372:
 1951               	.LBE371:
  32:../../LUFA/Drivers/USB/LowLevel/Template/Template_Endpoint_Control_W.c **** 				BytesInEndpoint++;
 1952               		.loc 4 32 0
 1953 0072 6150      		subi r22,1
 1954 0074 7109      		sbc r23,__zero_reg__
 1955               	.LVL182:
  33:../../LUFA/Drivers/USB/LowLevel/Template/Template_Endpoint_Control_W.c **** 			}
 1956               		.loc 4 33 0
 1957 0076 2F5F      		subi r18,lo8(-(1))
 1958               	.LVL183:
 1959 0078 00C0      		rjmp .L186
 1960               	.LVL184:
 1961               	.L187:
  36:../../LUFA/Drivers/USB/LowLevel/Template/Template_Endpoint_Control_W.c **** 			Endpoint_ClearIN();
 1962               		.loc 4 36 0
 1963 007a 31E0      		ldi r19,lo8(1)
 1964               	.LVL185:
 1965 007c 2830      		cpi r18,lo8(8)
 1966 007e 01F0      		breq .L189
 1967 0080 30E0      		ldi r19,0
 1968               	.L189:
 1969               	.LVL186:
 1970               	.LBB373:
 1971               	.LBB374:
 454:../../LUFA/Drivers/USB/LowLevel/Endpoint.h **** 				#else
 1972               		.loc 2 454 0
 1973 0082 2091 E800 		lds r18,232
 1974               	.LVL187:
 1975 0086 2E77      		andi r18,lo8(126)
 1976 0088 2093 E800 		sts 232,r18
 1977 008c 00C0      		rjmp .L185
 1978               	.LVL188:
 1979               	.L205:
 1980               	.LBE374:
 1981               	.LBE373:
 1982               	.LBE368:
  12:../../LUFA/Drivers/USB/LowLevel/Template/Template_Endpoint_Control_W.c **** 	{
 1983               		.loc 4 12 0 discriminator 2
 1984 008e 3111      		cpse r19,__zero_reg__
 1985 0090 00C0      		rjmp .L190
 1986 0092 00C0      		rjmp .L192
 1987               	.LVL189:
 1988               	.L183:
  43:../../LUFA/Drivers/USB/LowLevel/Template/Template_Endpoint_Control_W.c **** 		  return ENDPOINT_RWCSTREAM_DeviceDisconnected;
 1989               		.loc 4 43 0
 1990 0094 8EB3      		in r24,0x1e
 1991 0096 8823      		tst r24
 1992 0098 01F0      		breq .L197
  45:../../LUFA/Drivers/USB/LowLevel/Template/Template_Endpoint_Control_W.c **** 		  return ENDPOINT_RWCSTREAM_BusSuspended;
 1993               		.loc 4 45 0
 1994 009a 8EB3      		in r24,0x1e
 1995 009c 8530      		cpi r24,lo8(5)
 1996 009e 01F4      		brne .L192
 1997 00a0 00C0      		rjmp .L198
 1998               	.LVL190:
 1999               	.L194:
  15:../../LUFA/Drivers/USB/LowLevel/Template/Template_Endpoint_Control_W.c **** 
 2000               		.loc 4 15 0
 2001 00a2 81E0      		ldi r24,lo8(1)
 2002               	.LVL191:
 2003 00a4 0895      		ret
 2004               	.L197:
  21:../../LUFA/Drivers/USB/LowLevel/Template/Template_Endpoint_Control_W.c **** 		else if (USB_DeviceState == DEVICE_STATE_Suspended)
 2005               		.loc 4 21 0
 2006 00a6 82E0      		ldi r24,lo8(2)
 2007 00a8 0895      		ret
 2008               	.L198:
  23:../../LUFA/Drivers/USB/LowLevel/Template/Template_Endpoint_Control_W.c **** 		  
 2009               		.loc 4 23 0
 2010 00aa 83E0      		ldi r24,lo8(3)
  50:../../LUFA/Drivers/USB/LowLevel/Template/Template_Endpoint_Control_W.c **** }
 2011               		.loc 4 50 0
 2012 00ac 0895      		ret
 2013               		.cfi_endproc
 2014               	.LFE80:
 2016               		.section	.text.Endpoint_Write_Control_PStream_LE,"ax",@progbits
 2017               	.global	Endpoint_Write_Control_PStream_LE
 2019               	Endpoint_Write_Control_PStream_LE:
 2020               	.LFB81:
   3:../../LUFA/Drivers/USB/LowLevel/Template/Template_Endpoint_Control_W.c **** 	uint8_t* DataStream     = ((uint8_t*)Buffer + TEMPLATE_BUFFER_OFFSET(Length));
 2021               		.loc 4 3 0
 2022               		.cfi_startproc
 2023               	.LVL192:
 2024               	/* prologue: function */
 2025               	/* frame size = 0 */
 2026               	/* stack size = 0 */
 2027               	.L__stack_usage = 0
   7:../../LUFA/Drivers/USB/LowLevel/Template/Template_Endpoint_Control_W.c **** 	  Length = USB_ControlRequest.wLength;
 2028               		.loc 4 7 0
 2029 0000 2091 0000 		lds r18,USB_ControlRequest+6
 2030 0004 3091 0000 		lds r19,USB_ControlRequest+6+1
 2031 0008 2617      		cp r18,r22
 2032 000a 3707      		cpc r19,r23
 2033 000c 00F0      		brlo .L221
   9:../../LUFA/Drivers/USB/LowLevel/Template/Template_Endpoint_Control_W.c **** 	  Endpoint_ClearIN();
 2034               		.loc 4 9 0
 2035 000e 6115      		cp r22,__zero_reg__
 2036 0010 7105      		cpc r23,__zero_reg__
 2037 0012 01F4      		brne .L207
 2038               	.LBB375:
 2039               	.LBB376:
 454:../../LUFA/Drivers/USB/LowLevel/Endpoint.h **** 				#else
 2040               		.loc 2 454 0
 2041 0014 2091 E800 		lds r18,232
 2042 0018 2E77      		andi r18,lo8(126)
 2043 001a 2093 E800 		sts 232,r18
 2044 001e 00C0      		rjmp .L207
 2045               	.L221:
 2046               	.LBE376:
 2047               	.LBE375:
 2048 0020 B901      		movw r22,r18
 2049               	.LVL193:
 2050               	.L207:
 2051               	.LBB377:
  29:../../LUFA/Drivers/USB/LowLevel/Template/Template_Endpoint_Control_W.c **** 			{
 2052               		.loc 4 29 0 discriminator 1
 2053 0022 30E0      		ldi r19,0
 2054               	.LVL194:
 2055               	.L213:
 2056               	.LBE377:
  12:../../LUFA/Drivers/USB/LowLevel/Template/Template_Endpoint_Control_W.c **** 	{
 2057               		.loc 4 12 0 discriminator 1
 2058 0024 6115      		cp r22,__zero_reg__
 2059 0026 7105      		cpc r23,__zero_reg__
 2060 0028 01F0      		breq .L233
 2061               	.L218:
 2062               	.LBB385:
 2063               	.LBB386:
 429:../../LUFA/Drivers/USB/LowLevel/Endpoint.h **** 			}
 2064               		.loc 2 429 0
 2065 002a 2091 E800 		lds r18,232
 2066               	.LBE386:
 2067               	.LBE385:
  14:../../LUFA/Drivers/USB/LowLevel/Template/Template_Endpoint_Control_W.c **** 		  return ENDPOINT_RWCSTREAM_HostAborted;
 2068               		.loc 4 14 0
 2069 002e 23FD      		sbrc r18,3
 2070 0030 00C0      		rjmp .L222
 2071               	.LBB387:
 2072               	.LBB388:
 417:../../LUFA/Drivers/USB/LowLevel/Endpoint.h **** 			}
 2073               		.loc 2 417 0
 2074 0032 2091 E800 		lds r18,232
 2075               	.LBE388:
 2076               	.LBE387:
  17:../../LUFA/Drivers/USB/LowLevel/Template/Template_Endpoint_Control_W.c **** 		  break;
 2077               		.loc 4 17 0
 2078 0036 22FF      		sbrs r18,2
 2079 0038 00C0      		rjmp .L210
 2080               	.LVL195:
 2081               	.L220:
 2082               	.LBB389:
 2083               	.LBB390:
 417:../../LUFA/Drivers/USB/LowLevel/Endpoint.h **** 			}
 2084               		.loc 2 417 0 discriminator 1
 2085 003a 8091 E800 		lds r24,232
 2086               	.LBE390:
 2087               	.LBE389:
  41:../../LUFA/Drivers/USB/LowLevel/Template/Template_Endpoint_Control_W.c **** 	{
 2088               		.loc 4 41 0 discriminator 1
 2089 003e 82FF      		sbrs r24,2
 2090 0040 00C0      		rjmp .L211
  49:../../LUFA/Drivers/USB/LowLevel/Template/Template_Endpoint_Control_W.c **** }
 2091               		.loc 4 49 0
 2092 0042 80E0      		ldi r24,0
 2093 0044 0895      		ret
 2094               	.LVL196:
 2095               	.L210:
  20:../../LUFA/Drivers/USB/LowLevel/Template/Template_Endpoint_Control_W.c **** 		  return ENDPOINT_RWCSTREAM_DeviceDisconnected;
 2096               		.loc 4 20 0
 2097 0046 2EB3      		in r18,0x1e
 2098 0048 2223      		tst r18
 2099 004a 01F0      		breq .L225
  22:../../LUFA/Drivers/USB/LowLevel/Template/Template_Endpoint_Control_W.c **** 		  return ENDPOINT_RWCSTREAM_BusSuspended;
 2100               		.loc 4 22 0
 2101 004c 2EB3      		in r18,0x1e
 2102 004e 2530      		cpi r18,lo8(5)
 2103 0050 01F0      		breq .L226
 2104               	.LBB391:
 2105               	.LBB392:
 405:../../LUFA/Drivers/USB/LowLevel/Endpoint.h **** 			}
 2106               		.loc 2 405 0
 2107 0052 2091 E800 		lds r18,232
 2108               	.LBE392:
 2109               	.LBE391:
  25:../../LUFA/Drivers/USB/LowLevel/Template/Template_Endpoint_Control_W.c **** 		{
 2110               		.loc 4 25 0
 2111 0056 20FF      		sbrs r18,0
 2112 0058 00C0      		rjmp .L213
 2113               	.LBB393:
 2114               	.LBB378:
 2115               	.LBB379:
 266:../../LUFA/Drivers/USB/LowLevel/Endpoint.h **** 				#endif
 2116               		.loc 2 266 0
 2117 005a 2091 F200 		lds r18,242
 2118               	.LVL197:
 2119               	.LBE379:
 2120               	.LBE378:
  29:../../LUFA/Drivers/USB/LowLevel/Template/Template_Endpoint_Control_W.c **** 			{
 2121               		.loc 4 29 0
 2122 005e FC01      		movw r30,r24
 2123               	.LVL198:
 2124               	.L214:
 2125 0060 CF01      		movw r24,r30
 2126               	.LVL199:
  29:../../LUFA/Drivers/USB/LowLevel/Template/Template_Endpoint_Control_W.c **** 			{
 2127               		.loc 4 29 0 is_stmt 0 discriminator 1
 2128 0062 6115      		cp r22,__zero_reg__
 2129 0064 7105      		cpc r23,__zero_reg__
 2130 0066 01F0      		breq .L215
  29:../../LUFA/Drivers/USB/LowLevel/Template/Template_Endpoint_Control_W.c **** 			{
 2131               		.loc 4 29 0 discriminator 2
 2132 0068 2830      		cpi r18,lo8(8)
 2133 006a 00F4      		brsh .L215
 2134               	.LVL200:
 2135               	.LBB380:
  31:../../LUFA/Drivers/USB/LowLevel/Template/Template_Endpoint_Control_W.c **** 				Length--;
 2136               		.loc 4 31 0 is_stmt 1
 2137               	/* #APP */
 2138               	 ;  31 "../../LUFA/Drivers/USB/LowLevel/Template/Template_Endpoint_Control_W.c" 1
 2139 006c 8491      		lpm r24, Z
 2140               		
 2141               	 ;  0 "" 2
 2142               	.LVL201:
 2143               	/* #NOAPP */
 2144               	.LBE380:
 2145               	.LBB381:
 2146               	.LBB382:
 562:../../LUFA/Drivers/USB/LowLevel/Endpoint.h **** 			}
 2147               		.loc 2 562 0
 2148 006e 8093 F100 		sts 241,r24
 2149               	.LBE382:
 2150               	.LBE381:
  32:../../LUFA/Drivers/USB/LowLevel/Template/Template_Endpoint_Control_W.c **** 				BytesInEndpoint++;
 2151               		.loc 4 32 0
 2152 0072 6150      		subi r22,1
 2153 0074 7109      		sbc r23,__zero_reg__
 2154               	.LVL202:
  33:../../LUFA/Drivers/USB/LowLevel/Template/Template_Endpoint_Control_W.c **** 			}
 2155               		.loc 4 33 0
 2156 0076 2F5F      		subi r18,lo8(-(1))
 2157               	.LVL203:
 2158 0078 3196      		adiw r30,1
 2159               	.LVL204:
 2160 007a 00C0      		rjmp .L214
 2161               	.LVL205:
 2162               	.L215:
  36:../../LUFA/Drivers/USB/LowLevel/Template/Template_Endpoint_Control_W.c **** 			Endpoint_ClearIN();
 2163               		.loc 4 36 0
 2164 007c 31E0      		ldi r19,lo8(1)
 2165               	.LVL206:
 2166 007e 2830      		cpi r18,lo8(8)
 2167 0080 01F0      		breq .L217
 2168 0082 30E0      		ldi r19,0
 2169               	.L217:
 2170               	.LVL207:
 2171               	.LBB383:
 2172               	.LBB384:
 454:../../LUFA/Drivers/USB/LowLevel/Endpoint.h **** 				#else
 2173               		.loc 2 454 0
 2174 0084 2091 E800 		lds r18,232
 2175               	.LVL208:
 2176 0088 2E77      		andi r18,lo8(126)
 2177 008a 2093 E800 		sts 232,r18
 2178 008e 00C0      		rjmp .L213
 2179               	.LVL209:
 2180               	.L233:
 2181               	.LBE384:
 2182               	.LBE383:
 2183               	.LBE393:
  12:../../LUFA/Drivers/USB/LowLevel/Template/Template_Endpoint_Control_W.c **** 	{
 2184               		.loc 4 12 0 discriminator 2
 2185 0090 3111      		cpse r19,__zero_reg__
 2186 0092 00C0      		rjmp .L218
 2187 0094 00C0      		rjmp .L220
 2188               	.LVL210:
 2189               	.L211:
  43:../../LUFA/Drivers/USB/LowLevel/Template/Template_Endpoint_Control_W.c **** 		  return ENDPOINT_RWCSTREAM_DeviceDisconnected;
 2190               		.loc 4 43 0
 2191 0096 8EB3      		in r24,0x1e
 2192 0098 8823      		tst r24
 2193 009a 01F0      		breq .L225
  45:../../LUFA/Drivers/USB/LowLevel/Template/Template_Endpoint_Control_W.c **** 		  return ENDPOINT_RWCSTREAM_BusSuspended;
 2194               		.loc 4 45 0
 2195 009c 8EB3      		in r24,0x1e
 2196 009e 8530      		cpi r24,lo8(5)
 2197 00a0 01F4      		brne .L220
 2198 00a2 00C0      		rjmp .L226
 2199               	.LVL211:
 2200               	.L222:
  15:../../LUFA/Drivers/USB/LowLevel/Template/Template_Endpoint_Control_W.c **** 
 2201               		.loc 4 15 0
 2202 00a4 81E0      		ldi r24,lo8(1)
 2203               	.LVL212:
 2204 00a6 0895      		ret
 2205               	.L225:
  21:../../LUFA/Drivers/USB/LowLevel/Template/Template_Endpoint_Control_W.c **** 		else if (USB_DeviceState == DEVICE_STATE_Suspended)
 2206               		.loc 4 21 0
 2207 00a8 82E0      		ldi r24,lo8(2)
 2208 00aa 0895      		ret
 2209               	.L226:
  23:../../LUFA/Drivers/USB/LowLevel/Template/Template_Endpoint_Control_W.c **** 		  
 2210               		.loc 4 23 0
 2211 00ac 83E0      		ldi r24,lo8(3)
 2212               		.loc 4 50 0
 2213 00ae 0895      		ret
 2214               		.cfi_endproc
 2215               	.LFE81:
 2217               		.section	.text.Endpoint_Write_Control_EStream_LE,"ax",@progbits
 2218               	.global	Endpoint_Write_Control_EStream_LE
 2220               	Endpoint_Write_Control_EStream_LE:
 2221               	.LFB82:
   3:../../LUFA/Drivers/USB/LowLevel/Template/Template_Endpoint_Control_W.c **** 	uint8_t* DataStream     = ((uint8_t*)Buffer + TEMPLATE_BUFFER_OFFSET(Length));
 2222               		.loc 4 3 0
 2223               		.cfi_startproc
 2224               	.LVL213:
 2225 0000 EF92      		push r14
 2226               	.LCFI78:
 2227               		.cfi_def_cfa_offset 3
 2228               		.cfi_offset 14, -2
 2229 0002 FF92      		push r15
 2230               	.LCFI79:
 2231               		.cfi_def_cfa_offset 4
 2232               		.cfi_offset 15, -3
 2233 0004 0F93      		push r16
 2234               	.LCFI80:
 2235               		.cfi_def_cfa_offset 5
 2236               		.cfi_offset 16, -4
 2237 0006 1F93      		push r17
 2238               	.LCFI81:
 2239               		.cfi_def_cfa_offset 6
 2240               		.cfi_offset 17, -5
 2241 0008 CF93      		push r28
 2242               	.LCFI82:
 2243               		.cfi_def_cfa_offset 7
 2244               		.cfi_offset 28, -6
 2245 000a DF93      		push r29
 2246               	.LCFI83:
 2247               		.cfi_def_cfa_offset 8
 2248               		.cfi_offset 29, -7
 2249 000c 1F92      		push __zero_reg__
 2250               	.LCFI84:
 2251               		.cfi_def_cfa_offset 9
 2252 000e CDB7      		in r28,__SP_L__
 2253 0010 DEB7      		in r29,__SP_H__
 2254               	.LCFI85:
 2255               		.cfi_def_cfa_register 28
 2256               	/* prologue: function */
 2257               	/* frame size = 1 */
 2258               	/* stack size = 7 */
 2259               	.L__stack_usage = 7
 2260 0012 7B01      		movw r14,r22
 2261               	.LVL214:
   7:../../LUFA/Drivers/USB/LowLevel/Template/Template_Endpoint_Control_W.c **** 	  Length = USB_ControlRequest.wLength;
 2262               		.loc 4 7 0
 2263 0014 2091 0000 		lds r18,USB_ControlRequest+6
 2264 0018 3091 0000 		lds r19,USB_ControlRequest+6+1
 2265 001c 2617      		cp r18,r22
 2266 001e 3707      		cpc r19,r23
 2267 0020 00F0      		brlo .L249
   9:../../LUFA/Drivers/USB/LowLevel/Template/Template_Endpoint_Control_W.c **** 	  Endpoint_ClearIN();
 2268               		.loc 4 9 0
 2269 0022 6115      		cp r22,__zero_reg__
 2270 0024 7105      		cpc r23,__zero_reg__
 2271 0026 01F4      		brne .L235
 2272               	.LBB394:
 2273               	.LBB395:
 454:../../LUFA/Drivers/USB/LowLevel/Endpoint.h **** 				#else
 2274               		.loc 2 454 0
 2275 0028 2091 E800 		lds r18,232
 2276 002c 2E77      		andi r18,lo8(126)
 2277 002e 2093 E800 		sts 232,r18
 2278 0032 00C0      		rjmp .L235
 2279               	.L249:
 2280               	.LBE395:
 2281               	.LBE394:
 2282 0034 7901      		movw r14,r18
 2283               	.L235:
 2284               	.LBB396:
  31:../../LUFA/Drivers/USB/LowLevel/Template/Template_Endpoint_Control_W.c **** 				Length--;
 2285               		.loc 4 31 0 discriminator 1
 2286 0036 30E0      		ldi r19,0
 2287               	.LVL215:
 2288               	.L241:
 2289               	.LBE396:
  12:../../LUFA/Drivers/USB/LowLevel/Template/Template_Endpoint_Control_W.c **** 	{
 2290               		.loc 4 12 0 discriminator 1
 2291 0038 E114      		cp r14,__zero_reg__
 2292 003a F104      		cpc r15,__zero_reg__
 2293 003c 01F0      		breq .L261
 2294               	.L246:
 2295               	.LBB403:
 2296               	.LBB404:
 429:../../LUFA/Drivers/USB/LowLevel/Endpoint.h **** 			}
 2297               		.loc 2 429 0
 2298 003e 2091 E800 		lds r18,232
 2299               	.LBE404:
 2300               	.LBE403:
  14:../../LUFA/Drivers/USB/LowLevel/Template/Template_Endpoint_Control_W.c **** 		  return ENDPOINT_RWCSTREAM_HostAborted;
 2301               		.loc 4 14 0
 2302 0042 23FD      		sbrc r18,3
 2303 0044 00C0      		rjmp .L250
 2304               	.LBB405:
 2305               	.LBB406:
 417:../../LUFA/Drivers/USB/LowLevel/Endpoint.h **** 			}
 2306               		.loc 2 417 0
 2307 0046 2091 E800 		lds r18,232
 2308               	.LBE406:
 2309               	.LBE405:
  17:../../LUFA/Drivers/USB/LowLevel/Template/Template_Endpoint_Control_W.c **** 		  break;
 2310               		.loc 4 17 0
 2311 004a 22FF      		sbrs r18,2
 2312 004c 00C0      		rjmp .L238
 2313               	.LVL216:
 2314               	.L248:
 2315               	.LBB407:
 2316               	.LBB408:
 417:../../LUFA/Drivers/USB/LowLevel/Endpoint.h **** 			}
 2317               		.loc 2 417 0 discriminator 1
 2318 004e 8091 E800 		lds r24,232
 2319               	.LBE408:
 2320               	.LBE407:
  41:../../LUFA/Drivers/USB/LowLevel/Template/Template_Endpoint_Control_W.c **** 	{
 2321               		.loc 4 41 0 discriminator 1
 2322 0052 82FF      		sbrs r24,2
 2323 0054 00C0      		rjmp .L239
  49:../../LUFA/Drivers/USB/LowLevel/Template/Template_Endpoint_Control_W.c **** }
 2324               		.loc 4 49 0
 2325 0056 80E0      		ldi r24,0
 2326 0058 00C0      		rjmp .L237
 2327               	.LVL217:
 2328               	.L238:
  20:../../LUFA/Drivers/USB/LowLevel/Template/Template_Endpoint_Control_W.c **** 		  return ENDPOINT_RWCSTREAM_DeviceDisconnected;
 2329               		.loc 4 20 0
 2330 005a 2EB3      		in r18,0x1e
 2331 005c 2223      		tst r18
 2332 005e 01F0      		breq .L253
  22:../../LUFA/Drivers/USB/LowLevel/Template/Template_Endpoint_Control_W.c **** 		  return ENDPOINT_RWCSTREAM_BusSuspended;
 2333               		.loc 4 22 0
 2334 0060 2EB3      		in r18,0x1e
 2335 0062 2530      		cpi r18,lo8(5)
 2336 0064 01F0      		breq .L254
 2337               	.LBB409:
 2338               	.LBB410:
 405:../../LUFA/Drivers/USB/LowLevel/Endpoint.h **** 			}
 2339               		.loc 2 405 0
 2340 0066 2091 E800 		lds r18,232
 2341               	.LBE410:
 2342               	.LBE409:
  25:../../LUFA/Drivers/USB/LowLevel/Template/Template_Endpoint_Control_W.c **** 		{
 2343               		.loc 4 25 0
 2344 006a 20FF      		sbrs r18,0
 2345 006c 00C0      		rjmp .L241
 2346               	.LBB411:
 2347               	.LBB397:
 2348               	.LBB398:
 266:../../LUFA/Drivers/USB/LowLevel/Endpoint.h **** 				#endif
 2349               		.loc 2 266 0
 2350 006e 2091 F200 		lds r18,242
 2351               	.LVL218:
 2352               	.L242:
 2353               	.LBE398:
 2354               	.LBE397:
  29:../../LUFA/Drivers/USB/LowLevel/Template/Template_Endpoint_Control_W.c **** 			{
 2355               		.loc 4 29 0 discriminator 1
 2356 0072 E114      		cp r14,__zero_reg__
 2357 0074 F104      		cpc r15,__zero_reg__
 2358 0076 01F0      		breq .L243
  29:../../LUFA/Drivers/USB/LowLevel/Template/Template_Endpoint_Control_W.c **** 			{
 2359               		.loc 4 29 0 is_stmt 0 discriminator 2
 2360 0078 2830      		cpi r18,lo8(8)
 2361 007a 00F4      		brsh .L243
  31:../../LUFA/Drivers/USB/LowLevel/Template/Template_Endpoint_Control_W.c **** 				Length--;
 2362               		.loc 4 31 0 is_stmt 1
 2363 007c 8C01      		movw r16,r24
 2364 007e 0F5F      		subi r16,-1
 2365 0080 1F4F      		sbci r17,-1
 2366               	.LVL219:
 2367 0082 2983      		std Y+1,r18
 2368 0084 0E94 0000 		call __eerd_byte_m8u2
 2369               	.LVL220:
 2370               	.LBB399:
 2371               	.LBB400:
 562:../../LUFA/Drivers/USB/LowLevel/Endpoint.h **** 			}
 2372               		.loc 2 562 0
 2373 0088 8093 F100 		sts 241,r24
 2374               	.LBE400:
 2375               	.LBE399:
  32:../../LUFA/Drivers/USB/LowLevel/Template/Template_Endpoint_Control_W.c **** 				BytesInEndpoint++;
 2376               		.loc 4 32 0
 2377 008c 81E0      		ldi r24,1
 2378 008e E81A      		sub r14,r24
 2379 0090 F108      		sbc r15,__zero_reg__
 2380               	.LVL221:
  33:../../LUFA/Drivers/USB/LowLevel/Template/Template_Endpoint_Control_W.c **** 			}
 2381               		.loc 4 33 0
 2382 0092 2981      		ldd r18,Y+1
 2383 0094 2F5F      		subi r18,lo8(-(1))
 2384               	.LVL222:
  31:../../LUFA/Drivers/USB/LowLevel/Template/Template_Endpoint_Control_W.c **** 				Length--;
 2385               		.loc 4 31 0
 2386 0096 C801      		movw r24,r16
 2387 0098 00C0      		rjmp .L242
 2388               	.LVL223:
 2389               	.L243:
  36:../../LUFA/Drivers/USB/LowLevel/Template/Template_Endpoint_Control_W.c **** 			Endpoint_ClearIN();
 2390               		.loc 4 36 0
 2391 009a 31E0      		ldi r19,lo8(1)
 2392 009c 2830      		cpi r18,lo8(8)
 2393 009e 01F0      		breq .L245
 2394 00a0 30E0      		ldi r19,0
 2395               	.L245:
 2396               	.LVL224:
 2397               	.LBB401:
 2398               	.LBB402:
 454:../../LUFA/Drivers/USB/LowLevel/Endpoint.h **** 				#else
 2399               		.loc 2 454 0
 2400 00a2 2091 E800 		lds r18,232
 2401               	.LVL225:
 2402 00a6 2E77      		andi r18,lo8(126)
 2403 00a8 2093 E800 		sts 232,r18
 2404 00ac 00C0      		rjmp .L241
 2405               	.L261:
 2406               	.LBE402:
 2407               	.LBE401:
 2408               	.LBE411:
  12:../../LUFA/Drivers/USB/LowLevel/Template/Template_Endpoint_Control_W.c **** 	{
 2409               		.loc 4 12 0 discriminator 2
 2410 00ae 3111      		cpse r19,__zero_reg__
 2411 00b0 00C0      		rjmp .L246
 2412 00b2 00C0      		rjmp .L248
 2413               	.LVL226:
 2414               	.L239:
  43:../../LUFA/Drivers/USB/LowLevel/Template/Template_Endpoint_Control_W.c **** 		  return ENDPOINT_RWCSTREAM_DeviceDisconnected;
 2415               		.loc 4 43 0
 2416 00b4 8EB3      		in r24,0x1e
 2417 00b6 8823      		tst r24
 2418 00b8 01F0      		breq .L253
  45:../../LUFA/Drivers/USB/LowLevel/Template/Template_Endpoint_Control_W.c **** 		  return ENDPOINT_RWCSTREAM_BusSuspended;
 2419               		.loc 4 45 0
 2420 00ba 8EB3      		in r24,0x1e
 2421 00bc 8530      		cpi r24,lo8(5)
 2422 00be 01F4      		brne .L248
 2423 00c0 00C0      		rjmp .L254
 2424               	.LVL227:
 2425               	.L250:
  15:../../LUFA/Drivers/USB/LowLevel/Template/Template_Endpoint_Control_W.c **** 
 2426               		.loc 4 15 0
 2427 00c2 81E0      		ldi r24,lo8(1)
 2428               	.LVL228:
 2429 00c4 00C0      		rjmp .L237
 2430               	.L253:
  21:../../LUFA/Drivers/USB/LowLevel/Template/Template_Endpoint_Control_W.c **** 		else if (USB_DeviceState == DEVICE_STATE_Suspended)
 2431               		.loc 4 21 0
 2432 00c6 82E0      		ldi r24,lo8(2)
 2433 00c8 00C0      		rjmp .L237
 2434               	.L254:
  23:../../LUFA/Drivers/USB/LowLevel/Template/Template_Endpoint_Control_W.c **** 		  
 2435               		.loc 4 23 0
 2436 00ca 83E0      		ldi r24,lo8(3)
 2437               	.L237:
 2438               	/* epilogue start */
 2439               		.loc 4 50 0
 2440 00cc 0F90      		pop __tmp_reg__
 2441 00ce DF91      		pop r29
 2442 00d0 CF91      		pop r28
 2443 00d2 1F91      		pop r17
 2444 00d4 0F91      		pop r16
 2445 00d6 FF90      		pop r15
 2446 00d8 EF90      		pop r14
 2447               	.LVL229:
 2448 00da 0895      		ret
 2449               		.cfi_endproc
 2450               	.LFE82:
 2452               		.section	.text.Endpoint_Write_Control_Stream_BE,"ax",@progbits
 2453               	.global	Endpoint_Write_Control_Stream_BE
 2455               	Endpoint_Write_Control_Stream_BE:
 2456               	.LFB83:
   3:../../LUFA/Drivers/USB/LowLevel/Template/Template_Endpoint_Control_W.c **** 	uint8_t* DataStream     = ((uint8_t*)Buffer + TEMPLATE_BUFFER_OFFSET(Length));
 2457               		.loc 4 3 0
 2458               		.cfi_startproc
 2459               	.LVL230:
 2460               	/* prologue: function */
 2461               	/* frame size = 0 */
 2462               	/* stack size = 0 */
 2463               	.L__stack_usage = 0
   4:../../LUFA/Drivers/USB/LowLevel/Template/Template_Endpoint_Control_W.c **** 	bool     LastPacketFull = false;
 2464               		.loc 4 4 0
 2465 0000 9B01      		movw r18,r22
 2466 0002 2150      		subi r18,1
 2467 0004 3109      		sbc r19,__zero_reg__
 2468 0006 280F      		add r18,r24
 2469 0008 391F      		adc r19,r25
 2470               	.LVL231:
   7:../../LUFA/Drivers/USB/LowLevel/Template/Template_Endpoint_Control_W.c **** 	  Length = USB_ControlRequest.wLength;
 2471               		.loc 4 7 0
 2472 000a 8091 0000 		lds r24,USB_ControlRequest+6
 2473 000e 9091 0000 		lds r25,USB_ControlRequest+6+1
 2474               	.LVL232:
 2475 0012 8617      		cp r24,r22
 2476 0014 9707      		cpc r25,r23
 2477 0016 00F0      		brlo .L277
   9:../../LUFA/Drivers/USB/LowLevel/Template/Template_Endpoint_Control_W.c **** 	  Endpoint_ClearIN();
 2478               		.loc 4 9 0
 2479 0018 6115      		cp r22,__zero_reg__
 2480 001a 7105      		cpc r23,__zero_reg__
 2481 001c 01F4      		brne .L263
 2482               	.LBB412:
 2483               	.LBB413:
 454:../../LUFA/Drivers/USB/LowLevel/Endpoint.h **** 				#else
 2484               		.loc 2 454 0
 2485 001e 8091 E800 		lds r24,232
 2486 0022 8E77      		andi r24,lo8(126)
 2487 0024 8093 E800 		sts 232,r24
 2488 0028 00C0      		rjmp .L263
 2489               	.L277:
 2490               	.LBE413:
 2491               	.LBE412:
 2492 002a BC01      		movw r22,r24
 2493               	.LVL233:
 2494               	.L263:
 2495 002c 90E0      		ldi r25,0
 2496               	.LVL234:
 2497               	.L269:
  12:../../LUFA/Drivers/USB/LowLevel/Template/Template_Endpoint_Control_W.c **** 	{
 2498               		.loc 4 12 0 discriminator 1
 2499 002e 6115      		cp r22,__zero_reg__
 2500 0030 7105      		cpc r23,__zero_reg__
 2501 0032 01F0      		breq .L289
 2502               	.L274:
 2503               	.LBB414:
 2504               	.LBB415:
 429:../../LUFA/Drivers/USB/LowLevel/Endpoint.h **** 			}
 2505               		.loc 2 429 0
 2506 0034 8091 E800 		lds r24,232
 2507               	.LBE415:
 2508               	.LBE414:
  14:../../LUFA/Drivers/USB/LowLevel/Template/Template_Endpoint_Control_W.c **** 		  return ENDPOINT_RWCSTREAM_HostAborted;
 2509               		.loc 4 14 0
 2510 0038 83FD      		sbrc r24,3
 2511 003a 00C0      		rjmp .L278
 2512               	.LBB416:
 2513               	.LBB417:
 417:../../LUFA/Drivers/USB/LowLevel/Endpoint.h **** 			}
 2514               		.loc 2 417 0
 2515 003c 8091 E800 		lds r24,232
 2516               	.LBE417:
 2517               	.LBE416:
  17:../../LUFA/Drivers/USB/LowLevel/Template/Template_Endpoint_Control_W.c **** 		  break;
 2518               		.loc 4 17 0
 2519 0040 82FF      		sbrs r24,2
 2520 0042 00C0      		rjmp .L266
 2521               	.L276:
 2522               	.LBB418:
 2523               	.LBB419:
 417:../../LUFA/Drivers/USB/LowLevel/Endpoint.h **** 			}
 2524               		.loc 2 417 0 discriminator 1
 2525 0044 8091 E800 		lds r24,232
 2526               	.LBE419:
 2527               	.LBE418:
  41:../../LUFA/Drivers/USB/LowLevel/Template/Template_Endpoint_Control_W.c **** 	{
 2528               		.loc 4 41 0 discriminator 1
 2529 0048 82FF      		sbrs r24,2
 2530 004a 00C0      		rjmp .L267
  49:../../LUFA/Drivers/USB/LowLevel/Template/Template_Endpoint_Control_W.c **** }
 2531               		.loc 4 49 0
 2532 004c 80E0      		ldi r24,0
 2533 004e 0895      		ret
 2534               	.L266:
  20:../../LUFA/Drivers/USB/LowLevel/Template/Template_Endpoint_Control_W.c **** 		  return ENDPOINT_RWCSTREAM_DeviceDisconnected;
 2535               		.loc 4 20 0
 2536 0050 8EB3      		in r24,0x1e
 2537 0052 8823      		tst r24
 2538 0054 01F0      		breq .L281
  22:../../LUFA/Drivers/USB/LowLevel/Template/Template_Endpoint_Control_W.c **** 		  return ENDPOINT_RWCSTREAM_BusSuspended;
 2539               		.loc 4 22 0
 2540 0056 8EB3      		in r24,0x1e
 2541 0058 8530      		cpi r24,lo8(5)
 2542 005a 01F0      		breq .L282
 2543               	.LBB420:
 2544               	.LBB421:
 405:../../LUFA/Drivers/USB/LowLevel/Endpoint.h **** 			}
 2545               		.loc 2 405 0
 2546 005c 8091 E800 		lds r24,232
 2547               	.LBE421:
 2548               	.LBE420:
  25:../../LUFA/Drivers/USB/LowLevel/Template/Template_Endpoint_Control_W.c **** 		{
 2549               		.loc 4 25 0
 2550 0060 80FF      		sbrs r24,0
 2551 0062 00C0      		rjmp .L269
 2552               	.LBB422:
 2553               	.LBB423:
 2554               	.LBB424:
 266:../../LUFA/Drivers/USB/LowLevel/Endpoint.h **** 				#endif
 2555               		.loc 2 266 0
 2556 0064 8091 F200 		lds r24,242
 2557               	.LVL235:
 2558 0068 F901      		movw r30,r18
 2559               	.LVL236:
 2560               	.L270:
 2561 006a 9F01      		movw r18,r30
 2562               	.LVL237:
 2563               	.LBE424:
 2564               	.LBE423:
  29:../../LUFA/Drivers/USB/LowLevel/Template/Template_Endpoint_Control_W.c **** 			{
 2565               		.loc 4 29 0 discriminator 1
 2566 006c 6115      		cp r22,__zero_reg__
 2567 006e 7105      		cpc r23,__zero_reg__
 2568 0070 01F0      		breq .L271
  29:../../LUFA/Drivers/USB/LowLevel/Template/Template_Endpoint_Control_W.c **** 			{
 2569               		.loc 4 29 0 is_stmt 0 discriminator 2
 2570 0072 8830      		cpi r24,lo8(8)
 2571 0074 00F4      		brsh .L271
 2572               	.LVL238:
  31:../../LUFA/Drivers/USB/LowLevel/Template/Template_Endpoint_Control_W.c **** 				Length--;
 2573               		.loc 4 31 0 is_stmt 1
 2574 0076 9081      		ld r25,Z
 2575               	.LVL239:
 2576               	.LBB425:
 2577               	.LBB426:
 562:../../LUFA/Drivers/USB/LowLevel/Endpoint.h **** 			}
 2578               		.loc 2 562 0
 2579 0078 9093 F100 		sts 241,r25
 2580               	.LBE426:
 2581               	.LBE425:
  32:../../LUFA/Drivers/USB/LowLevel/Template/Template_Endpoint_Control_W.c **** 				BytesInEndpoint++;
 2582               		.loc 4 32 0
 2583 007c 6150      		subi r22,1
 2584 007e 7109      		sbc r23,__zero_reg__
 2585               	.LVL240:
  33:../../LUFA/Drivers/USB/LowLevel/Template/Template_Endpoint_Control_W.c **** 			}
 2586               		.loc 4 33 0
 2587 0080 8F5F      		subi r24,lo8(-(1))
 2588               	.LVL241:
 2589 0082 3197      		sbiw r30,1
 2590               	.LVL242:
 2591 0084 00C0      		rjmp .L270
 2592               	.LVL243:
 2593               	.L271:
  36:../../LUFA/Drivers/USB/LowLevel/Template/Template_Endpoint_Control_W.c **** 			Endpoint_ClearIN();
 2594               		.loc 4 36 0
 2595 0086 91E0      		ldi r25,lo8(1)
 2596 0088 8830      		cpi r24,lo8(8)
 2597 008a 01F0      		breq .L273
 2598 008c 90E0      		ldi r25,0
 2599               	.L273:
 2600               	.LVL244:
 2601               	.LBB427:
 2602               	.LBB428:
 454:../../LUFA/Drivers/USB/LowLevel/Endpoint.h **** 				#else
 2603               		.loc 2 454 0
 2604 008e 8091 E800 		lds r24,232
 2605               	.LVL245:
 2606 0092 8E77      		andi r24,lo8(126)
 2607 0094 8093 E800 		sts 232,r24
 2608 0098 00C0      		rjmp .L269
 2609               	.L289:
 2610               	.LBE428:
 2611               	.LBE427:
 2612               	.LBE422:
  12:../../LUFA/Drivers/USB/LowLevel/Template/Template_Endpoint_Control_W.c **** 	{
 2613               		.loc 4 12 0 discriminator 2
 2614 009a 9111      		cpse r25,__zero_reg__
 2615 009c 00C0      		rjmp .L274
 2616 009e 00C0      		rjmp .L276
 2617               	.L267:
  43:../../LUFA/Drivers/USB/LowLevel/Template/Template_Endpoint_Control_W.c **** 		  return ENDPOINT_RWCSTREAM_DeviceDisconnected;
 2618               		.loc 4 43 0
 2619 00a0 8EB3      		in r24,0x1e
 2620 00a2 8823      		tst r24
 2621 00a4 01F0      		breq .L281
  45:../../LUFA/Drivers/USB/LowLevel/Template/Template_Endpoint_Control_W.c **** 		  return ENDPOINT_RWCSTREAM_BusSuspended;
 2622               		.loc 4 45 0
 2623 00a6 8EB3      		in r24,0x1e
 2624 00a8 8530      		cpi r24,lo8(5)
 2625 00aa 01F4      		brne .L276
 2626 00ac 00C0      		rjmp .L282
 2627               	.L278:
  15:../../LUFA/Drivers/USB/LowLevel/Template/Template_Endpoint_Control_W.c **** 
 2628               		.loc 4 15 0
 2629 00ae 81E0      		ldi r24,lo8(1)
 2630 00b0 0895      		ret
 2631               	.L281:
  21:../../LUFA/Drivers/USB/LowLevel/Template/Template_Endpoint_Control_W.c **** 		else if (USB_DeviceState == DEVICE_STATE_Suspended)
 2632               		.loc 4 21 0
 2633 00b2 82E0      		ldi r24,lo8(2)
 2634 00b4 0895      		ret
 2635               	.L282:
  23:../../LUFA/Drivers/USB/LowLevel/Template/Template_Endpoint_Control_W.c **** 		  
 2636               		.loc 4 23 0
 2637 00b6 83E0      		ldi r24,lo8(3)
 2638               		.loc 4 50 0
 2639 00b8 0895      		ret
 2640               		.cfi_endproc
 2641               	.LFE83:
 2643               		.section	.text.Endpoint_Write_Control_PStream_BE,"ax",@progbits
 2644               	.global	Endpoint_Write_Control_PStream_BE
 2646               	Endpoint_Write_Control_PStream_BE:
 2647               	.LFB84:
   3:../../LUFA/Drivers/USB/LowLevel/Template/Template_Endpoint_Control_W.c **** 	uint8_t* DataStream     = ((uint8_t*)Buffer + TEMPLATE_BUFFER_OFFSET(Length));
 2648               		.loc 4 3 0
 2649               		.cfi_startproc
 2650               	.LVL246:
 2651               	/* prologue: function */
 2652               	/* frame size = 0 */
 2653               	/* stack size = 0 */
 2654               	.L__stack_usage = 0
   4:../../LUFA/Drivers/USB/LowLevel/Template/Template_Endpoint_Control_W.c **** 	bool     LastPacketFull = false;
 2655               		.loc 4 4 0
 2656 0000 9B01      		movw r18,r22
 2657 0002 2150      		subi r18,1
 2658 0004 3109      		sbc r19,__zero_reg__
 2659 0006 280F      		add r18,r24
 2660 0008 391F      		adc r19,r25
 2661               	.LVL247:
   7:../../LUFA/Drivers/USB/LowLevel/Template/Template_Endpoint_Control_W.c **** 	  Length = USB_ControlRequest.wLength;
 2662               		.loc 4 7 0
 2663 000a 8091 0000 		lds r24,USB_ControlRequest+6
 2664 000e 9091 0000 		lds r25,USB_ControlRequest+6+1
 2665               	.LVL248:
 2666 0012 8617      		cp r24,r22
 2667 0014 9707      		cpc r25,r23
 2668 0016 00F0      		brlo .L305
   9:../../LUFA/Drivers/USB/LowLevel/Template/Template_Endpoint_Control_W.c **** 	  Endpoint_ClearIN();
 2669               		.loc 4 9 0
 2670 0018 6115      		cp r22,__zero_reg__
 2671 001a 7105      		cpc r23,__zero_reg__
 2672 001c 01F4      		brne .L291
 2673               	.LBB429:
 2674               	.LBB430:
 454:../../LUFA/Drivers/USB/LowLevel/Endpoint.h **** 				#else
 2675               		.loc 2 454 0
 2676 001e 8091 E800 		lds r24,232
 2677 0022 8E77      		andi r24,lo8(126)
 2678 0024 8093 E800 		sts 232,r24
 2679 0028 00C0      		rjmp .L291
 2680               	.L305:
 2681               	.LBE430:
 2682               	.LBE429:
 2683 002a BC01      		movw r22,r24
 2684               	.LVL249:
 2685               	.L291:
 2686               	.LBB431:
  29:../../LUFA/Drivers/USB/LowLevel/Template/Template_Endpoint_Control_W.c **** 			{
 2687               		.loc 4 29 0 discriminator 1
 2688 002c 90E0      		ldi r25,0
 2689               	.LVL250:
 2690               	.L297:
 2691               	.LBE431:
  12:../../LUFA/Drivers/USB/LowLevel/Template/Template_Endpoint_Control_W.c **** 	{
 2692               		.loc 4 12 0 discriminator 1
 2693 002e 6115      		cp r22,__zero_reg__
 2694 0030 7105      		cpc r23,__zero_reg__
 2695 0032 01F0      		breq .L317
 2696               	.L302:
 2697               	.LBB439:
 2698               	.LBB440:
 429:../../LUFA/Drivers/USB/LowLevel/Endpoint.h **** 			}
 2699               		.loc 2 429 0
 2700 0034 8091 E800 		lds r24,232
 2701               	.LBE440:
 2702               	.LBE439:
  14:../../LUFA/Drivers/USB/LowLevel/Template/Template_Endpoint_Control_W.c **** 		  return ENDPOINT_RWCSTREAM_HostAborted;
 2703               		.loc 4 14 0
 2704 0038 83FD      		sbrc r24,3
 2705 003a 00C0      		rjmp .L306
 2706               	.LBB441:
 2707               	.LBB442:
 417:../../LUFA/Drivers/USB/LowLevel/Endpoint.h **** 			}
 2708               		.loc 2 417 0
 2709 003c 8091 E800 		lds r24,232
 2710               	.LBE442:
 2711               	.LBE441:
  17:../../LUFA/Drivers/USB/LowLevel/Template/Template_Endpoint_Control_W.c **** 		  break;
 2712               		.loc 4 17 0
 2713 0040 82FF      		sbrs r24,2
 2714 0042 00C0      		rjmp .L294
 2715               	.L304:
 2716               	.LBB443:
 2717               	.LBB444:
 417:../../LUFA/Drivers/USB/LowLevel/Endpoint.h **** 			}
 2718               		.loc 2 417 0 discriminator 1
 2719 0044 8091 E800 		lds r24,232
 2720               	.LBE444:
 2721               	.LBE443:
  41:../../LUFA/Drivers/USB/LowLevel/Template/Template_Endpoint_Control_W.c **** 	{
 2722               		.loc 4 41 0 discriminator 1
 2723 0048 82FF      		sbrs r24,2
 2724 004a 00C0      		rjmp .L295
  49:../../LUFA/Drivers/USB/LowLevel/Template/Template_Endpoint_Control_W.c **** }
 2725               		.loc 4 49 0
 2726 004c 80E0      		ldi r24,0
 2727 004e 0895      		ret
 2728               	.L294:
  20:../../LUFA/Drivers/USB/LowLevel/Template/Template_Endpoint_Control_W.c **** 		  return ENDPOINT_RWCSTREAM_DeviceDisconnected;
 2729               		.loc 4 20 0
 2730 0050 8EB3      		in r24,0x1e
 2731 0052 8823      		tst r24
 2732 0054 01F0      		breq .L309
  22:../../LUFA/Drivers/USB/LowLevel/Template/Template_Endpoint_Control_W.c **** 		  return ENDPOINT_RWCSTREAM_BusSuspended;
 2733               		.loc 4 22 0
 2734 0056 8EB3      		in r24,0x1e
 2735 0058 8530      		cpi r24,lo8(5)
 2736 005a 01F0      		breq .L310
 2737               	.LBB445:
 2738               	.LBB446:
 405:../../LUFA/Drivers/USB/LowLevel/Endpoint.h **** 			}
 2739               		.loc 2 405 0
 2740 005c 8091 E800 		lds r24,232
 2741               	.LBE446:
 2742               	.LBE445:
  25:../../LUFA/Drivers/USB/LowLevel/Template/Template_Endpoint_Control_W.c **** 		{
 2743               		.loc 4 25 0
 2744 0060 80FF      		sbrs r24,0
 2745 0062 00C0      		rjmp .L297
 2746               	.LBB447:
 2747               	.LBB432:
 2748               	.LBB433:
 266:../../LUFA/Drivers/USB/LowLevel/Endpoint.h **** 				#endif
 2749               		.loc 2 266 0
 2750 0064 8091 F200 		lds r24,242
 2751               	.LVL251:
 2752               	.LBE433:
 2753               	.LBE432:
  29:../../LUFA/Drivers/USB/LowLevel/Template/Template_Endpoint_Control_W.c **** 			{
 2754               		.loc 4 29 0
 2755 0068 F901      		movw r30,r18
 2756               	.LVL252:
 2757               	.L298:
 2758 006a 9F01      		movw r18,r30
 2759               	.LVL253:
  29:../../LUFA/Drivers/USB/LowLevel/Template/Template_Endpoint_Control_W.c **** 			{
 2760               		.loc 4 29 0 is_stmt 0 discriminator 1
 2761 006c 6115      		cp r22,__zero_reg__
 2762 006e 7105      		cpc r23,__zero_reg__
 2763 0070 01F0      		breq .L299
  29:../../LUFA/Drivers/USB/LowLevel/Template/Template_Endpoint_Control_W.c **** 			{
 2764               		.loc 4 29 0 discriminator 2
 2765 0072 8830      		cpi r24,lo8(8)
 2766 0074 00F4      		brsh .L299
 2767               	.LVL254:
 2768               	.LBB434:
  31:../../LUFA/Drivers/USB/LowLevel/Template/Template_Endpoint_Control_W.c **** 				Length--;
 2769               		.loc 4 31 0 is_stmt 1
 2770               	/* #APP */
 2771               	 ;  31 "../../LUFA/Drivers/USB/LowLevel/Template/Template_Endpoint_Control_W.c" 1
 2772 0076 9491      		lpm r25, Z
 2773               		
 2774               	 ;  0 "" 2
 2775               	.LVL255:
 2776               	/* #NOAPP */
 2777               	.LBE434:
 2778               	.LBB435:
 2779               	.LBB436:
 562:../../LUFA/Drivers/USB/LowLevel/Endpoint.h **** 			}
 2780               		.loc 2 562 0
 2781 0078 9093 F100 		sts 241,r25
 2782               	.LBE436:
 2783               	.LBE435:
  32:../../LUFA/Drivers/USB/LowLevel/Template/Template_Endpoint_Control_W.c **** 				BytesInEndpoint++;
 2784               		.loc 4 32 0
 2785 007c 6150      		subi r22,1
 2786 007e 7109      		sbc r23,__zero_reg__
 2787               	.LVL256:
  33:../../LUFA/Drivers/USB/LowLevel/Template/Template_Endpoint_Control_W.c **** 			}
 2788               		.loc 4 33 0
 2789 0080 8F5F      		subi r24,lo8(-(1))
 2790               	.LVL257:
 2791 0082 3197      		sbiw r30,1
 2792               	.LVL258:
 2793 0084 00C0      		rjmp .L298
 2794               	.LVL259:
 2795               	.L299:
  36:../../LUFA/Drivers/USB/LowLevel/Template/Template_Endpoint_Control_W.c **** 			Endpoint_ClearIN();
 2796               		.loc 4 36 0
 2797 0086 91E0      		ldi r25,lo8(1)
 2798 0088 8830      		cpi r24,lo8(8)
 2799 008a 01F0      		breq .L301
 2800 008c 90E0      		ldi r25,0
 2801               	.L301:
 2802               	.LVL260:
 2803               	.LBB437:
 2804               	.LBB438:
 454:../../LUFA/Drivers/USB/LowLevel/Endpoint.h **** 				#else
 2805               		.loc 2 454 0
 2806 008e 8091 E800 		lds r24,232
 2807               	.LVL261:
 2808 0092 8E77      		andi r24,lo8(126)
 2809 0094 8093 E800 		sts 232,r24
 2810 0098 00C0      		rjmp .L297
 2811               	.L317:
 2812               	.LBE438:
 2813               	.LBE437:
 2814               	.LBE447:
  12:../../LUFA/Drivers/USB/LowLevel/Template/Template_Endpoint_Control_W.c **** 	{
 2815               		.loc 4 12 0 discriminator 2
 2816 009a 9111      		cpse r25,__zero_reg__
 2817 009c 00C0      		rjmp .L302
 2818 009e 00C0      		rjmp .L304
 2819               	.L295:
  43:../../LUFA/Drivers/USB/LowLevel/Template/Template_Endpoint_Control_W.c **** 		  return ENDPOINT_RWCSTREAM_DeviceDisconnected;
 2820               		.loc 4 43 0
 2821 00a0 8EB3      		in r24,0x1e
 2822 00a2 8823      		tst r24
 2823 00a4 01F0      		breq .L309
  45:../../LUFA/Drivers/USB/LowLevel/Template/Template_Endpoint_Control_W.c **** 		  return ENDPOINT_RWCSTREAM_BusSuspended;
 2824               		.loc 4 45 0
 2825 00a6 8EB3      		in r24,0x1e
 2826 00a8 8530      		cpi r24,lo8(5)
 2827 00aa 01F4      		brne .L304
 2828 00ac 00C0      		rjmp .L310
 2829               	.L306:
  15:../../LUFA/Drivers/USB/LowLevel/Template/Template_Endpoint_Control_W.c **** 
 2830               		.loc 4 15 0
 2831 00ae 81E0      		ldi r24,lo8(1)
 2832 00b0 0895      		ret
 2833               	.L309:
  21:../../LUFA/Drivers/USB/LowLevel/Template/Template_Endpoint_Control_W.c **** 		else if (USB_DeviceState == DEVICE_STATE_Suspended)
 2834               		.loc 4 21 0
 2835 00b2 82E0      		ldi r24,lo8(2)
 2836 00b4 0895      		ret
 2837               	.L310:
  23:../../LUFA/Drivers/USB/LowLevel/Template/Template_Endpoint_Control_W.c **** 		  
 2838               		.loc 4 23 0
 2839 00b6 83E0      		ldi r24,lo8(3)
 2840               		.loc 4 50 0
 2841 00b8 0895      		ret
 2842               		.cfi_endproc
 2843               	.LFE84:
 2845               		.section	.text.Endpoint_Write_Control_EStream_BE,"ax",@progbits
 2846               	.global	Endpoint_Write_Control_EStream_BE
 2848               	Endpoint_Write_Control_EStream_BE:
 2849               	.LFB85:
   3:../../LUFA/Drivers/USB/LowLevel/Template/Template_Endpoint_Control_W.c **** 	uint8_t* DataStream     = ((uint8_t*)Buffer + TEMPLATE_BUFFER_OFFSET(Length));
 2850               		.loc 4 3 0
 2851               		.cfi_startproc
 2852               	.LVL262:
 2853 0000 EF92      		push r14
 2854               	.LCFI86:
 2855               		.cfi_def_cfa_offset 3
 2856               		.cfi_offset 14, -2
 2857 0002 FF92      		push r15
 2858               	.LCFI87:
 2859               		.cfi_def_cfa_offset 4
 2860               		.cfi_offset 15, -3
 2861 0004 0F93      		push r16
 2862               	.LCFI88:
 2863               		.cfi_def_cfa_offset 5
 2864               		.cfi_offset 16, -4
 2865 0006 1F93      		push r17
 2866               	.LCFI89:
 2867               		.cfi_def_cfa_offset 6
 2868               		.cfi_offset 17, -5
 2869 0008 CF93      		push r28
 2870               	.LCFI90:
 2871               		.cfi_def_cfa_offset 7
 2872               		.cfi_offset 28, -6
 2873 000a DF93      		push r29
 2874               	.LCFI91:
 2875               		.cfi_def_cfa_offset 8
 2876               		.cfi_offset 29, -7
 2877 000c 1F92      		push __zero_reg__
 2878               	.LCFI92:
 2879               		.cfi_def_cfa_offset 9
 2880 000e CDB7      		in r28,__SP_L__
 2881 0010 DEB7      		in r29,__SP_H__
 2882               	.LCFI93:
 2883               		.cfi_def_cfa_register 28
 2884               	/* prologue: function */
 2885               	/* frame size = 1 */
 2886               	/* stack size = 7 */
 2887               	.L__stack_usage = 7
   4:../../LUFA/Drivers/USB/LowLevel/Template/Template_Endpoint_Control_W.c **** 	bool     LastPacketFull = false;
 2888               		.loc 4 4 0
 2889 0012 9B01      		movw r18,r22
 2890 0014 2150      		subi r18,1
 2891 0016 3109      		sbc r19,__zero_reg__
 2892 0018 280F      		add r18,r24
 2893 001a 391F      		adc r19,r25
 2894               	.LVL263:
   7:../../LUFA/Drivers/USB/LowLevel/Template/Template_Endpoint_Control_W.c **** 	  Length = USB_ControlRequest.wLength;
 2895               		.loc 4 7 0
 2896 001c 8091 0000 		lds r24,USB_ControlRequest+6
 2897 0020 9091 0000 		lds r25,USB_ControlRequest+6+1
 2898               	.LVL264:
 2899 0024 8617      		cp r24,r22
 2900 0026 9707      		cpc r25,r23
 2901 0028 00F0      		brlo .L333
   9:../../LUFA/Drivers/USB/LowLevel/Template/Template_Endpoint_Control_W.c **** 	  Endpoint_ClearIN();
 2902               		.loc 4 9 0
 2903 002a 6115      		cp r22,__zero_reg__
 2904 002c 7105      		cpc r23,__zero_reg__
 2905 002e 01F4      		brne .L319
 2906               	.LBB448:
 2907               	.LBB449:
 454:../../LUFA/Drivers/USB/LowLevel/Endpoint.h **** 				#else
 2908               		.loc 2 454 0
 2909 0030 8091 E800 		lds r24,232
 2910 0034 8E77      		andi r24,lo8(126)
 2911 0036 8093 E800 		sts 232,r24
 2912 003a 00C0      		rjmp .L319
 2913               	.L333:
 2914               	.LBE449:
 2915               	.LBE448:
 2916 003c BC01      		movw r22,r24
 2917               	.LVL265:
 2918               	.L319:
 2919               	.LBB450:
  29:../../LUFA/Drivers/USB/LowLevel/Template/Template_Endpoint_Control_W.c **** 			{
 2920               		.loc 4 29 0 discriminator 1
 2921 003e 50E0      		ldi r21,0
 2922               	.LVL266:
 2923               	.L325:
 2924               	.LBE450:
  12:../../LUFA/Drivers/USB/LowLevel/Template/Template_Endpoint_Control_W.c **** 	{
 2925               		.loc 4 12 0 discriminator 1
 2926 0040 6115      		cp r22,__zero_reg__
 2927 0042 7105      		cpc r23,__zero_reg__
 2928 0044 01F0      		breq .L345
 2929               	.L330:
 2930               	.LBB457:
 2931               	.LBB458:
 429:../../LUFA/Drivers/USB/LowLevel/Endpoint.h **** 			}
 2932               		.loc 2 429 0
 2933 0046 8091 E800 		lds r24,232
 2934               	.LBE458:
 2935               	.LBE457:
  14:../../LUFA/Drivers/USB/LowLevel/Template/Template_Endpoint_Control_W.c **** 		  return ENDPOINT_RWCSTREAM_HostAborted;
 2936               		.loc 4 14 0
 2937 004a 83FD      		sbrc r24,3
 2938 004c 00C0      		rjmp .L334
 2939               	.LBB459:
 2940               	.LBB460:
 417:../../LUFA/Drivers/USB/LowLevel/Endpoint.h **** 			}
 2941               		.loc 2 417 0
 2942 004e 8091 E800 		lds r24,232
 2943               	.LBE460:
 2944               	.LBE459:
  17:../../LUFA/Drivers/USB/LowLevel/Template/Template_Endpoint_Control_W.c **** 		  break;
 2945               		.loc 4 17 0
 2946 0052 82FF      		sbrs r24,2
 2947 0054 00C0      		rjmp .L322
 2948               	.L332:
 2949               	.LBB461:
 2950               	.LBB462:
 417:../../LUFA/Drivers/USB/LowLevel/Endpoint.h **** 			}
 2951               		.loc 2 417 0 discriminator 1
 2952 0056 8091 E800 		lds r24,232
 2953               	.LBE462:
 2954               	.LBE461:
  41:../../LUFA/Drivers/USB/LowLevel/Template/Template_Endpoint_Control_W.c **** 	{
 2955               		.loc 4 41 0 discriminator 1
 2956 005a 82FF      		sbrs r24,2
 2957 005c 00C0      		rjmp .L323
  49:../../LUFA/Drivers/USB/LowLevel/Template/Template_Endpoint_Control_W.c **** }
 2958               		.loc 4 49 0
 2959 005e 80E0      		ldi r24,0
 2960 0060 00C0      		rjmp .L321
 2961               	.L322:
  20:../../LUFA/Drivers/USB/LowLevel/Template/Template_Endpoint_Control_W.c **** 		  return ENDPOINT_RWCSTREAM_DeviceDisconnected;
 2962               		.loc 4 20 0
 2963 0062 8EB3      		in r24,0x1e
 2964 0064 8823      		tst r24
 2965 0066 01F0      		breq .L337
  22:../../LUFA/Drivers/USB/LowLevel/Template/Template_Endpoint_Control_W.c **** 		  return ENDPOINT_RWCSTREAM_BusSuspended;
 2966               		.loc 4 22 0
 2967 0068 8EB3      		in r24,0x1e
 2968 006a 8530      		cpi r24,lo8(5)
 2969 006c 01F0      		breq .L338
 2970               	.LBB463:
 2971               	.LBB464:
 405:../../LUFA/Drivers/USB/LowLevel/Endpoint.h **** 			}
 2972               		.loc 2 405 0
 2973 006e 8091 E800 		lds r24,232
 2974               	.LBE464:
 2975               	.LBE463:
  25:../../LUFA/Drivers/USB/LowLevel/Template/Template_Endpoint_Control_W.c **** 		{
 2976               		.loc 4 25 0
 2977 0072 80FF      		sbrs r24,0
 2978 0074 00C0      		rjmp .L325
 2979               	.LBB465:
 2980               	.LBB451:
 2981               	.LBB452:
 266:../../LUFA/Drivers/USB/LowLevel/Endpoint.h **** 				#endif
 2982               		.loc 2 266 0
 2983 0076 4091 F200 		lds r20,242
 2984               	.LVL267:
 2985               	.LBE452:
 2986               	.LBE451:
  29:../../LUFA/Drivers/USB/LowLevel/Template/Template_Endpoint_Control_W.c **** 			{
 2987               		.loc 4 29 0
 2988 007a 7B01      		movw r14,r22
 2989 007c 8901      		movw r16,r18
 2990 007e 061B      		sub r16,r22
 2991 0080 170B      		sbc r17,r23
 2992               	.LVL268:
 2993               	.L326:
 2994 0082 C801      		movw r24,r16
 2995 0084 8E0D      		add r24,r14
 2996 0086 9F1D      		adc r25,r15
 2997               	.LVL269:
  29:../../LUFA/Drivers/USB/LowLevel/Template/Template_Endpoint_Control_W.c **** 			{
 2998               		.loc 4 29 0 is_stmt 0 discriminator 1
 2999 0088 E114      		cp r14,__zero_reg__
 3000 008a F104      		cpc r15,__zero_reg__
 3001 008c 01F0      		breq .L327
  29:../../LUFA/Drivers/USB/LowLevel/Template/Template_Endpoint_Control_W.c **** 			{
 3002               		.loc 4 29 0 discriminator 2
 3003 008e 4830      		cpi r20,lo8(8)
 3004 0090 00F4      		brsh .L327
 3005               	.LVL270:
  31:../../LUFA/Drivers/USB/LowLevel/Template/Template_Endpoint_Control_W.c **** 				Length--;
 3006               		.loc 4 31 0 is_stmt 1
 3007 0092 4983      		std Y+1,r20
 3008 0094 0E94 0000 		call __eerd_byte_m8u2
 3009               	.LVL271:
 3010               	.LBB453:
 3011               	.LBB454:
 562:../../LUFA/Drivers/USB/LowLevel/Endpoint.h **** 			}
 3012               		.loc 2 562 0
 3013 0098 8093 F100 		sts 241,r24
 3014               	.LBE454:
 3015               	.LBE453:
  32:../../LUFA/Drivers/USB/LowLevel/Template/Template_Endpoint_Control_W.c **** 				BytesInEndpoint++;
 3016               		.loc 4 32 0
 3017 009c 81E0      		ldi r24,1
 3018 009e E81A      		sub r14,r24
 3019 00a0 F108      		sbc r15,__zero_reg__
 3020               	.LVL272:
  33:../../LUFA/Drivers/USB/LowLevel/Template/Template_Endpoint_Control_W.c **** 			}
 3021               		.loc 4 33 0
 3022 00a2 4981      		ldd r20,Y+1
 3023 00a4 4F5F      		subi r20,lo8(-(1))
 3024               	.LVL273:
 3025 00a6 00C0      		rjmp .L326
 3026               	.LVL274:
 3027               	.L327:
  36:../../LUFA/Drivers/USB/LowLevel/Template/Template_Endpoint_Control_W.c **** 			Endpoint_ClearIN();
 3028               		.loc 4 36 0
 3029 00a8 51E0      		ldi r21,lo8(1)
 3030 00aa 4830      		cpi r20,lo8(8)
 3031 00ac 01F0      		breq .L329
 3032 00ae 50E0      		ldi r21,0
 3033               	.L329:
 3034               	.LVL275:
 3035               	.LBB455:
 3036               	.LBB456:
 454:../../LUFA/Drivers/USB/LowLevel/Endpoint.h **** 				#else
 3037               		.loc 2 454 0
 3038 00b0 2091 E800 		lds r18,232
 3039 00b4 2E77      		andi r18,lo8(126)
 3040 00b6 2093 E800 		sts 232,r18
 3041 00ba 9C01      		movw r18,r24
 3042 00bc B701      		movw r22,r14
 3043 00be 00C0      		rjmp .L325
 3044               	.LVL276:
 3045               	.L345:
 3046               	.LBE456:
 3047               	.LBE455:
 3048               	.LBE465:
  12:../../LUFA/Drivers/USB/LowLevel/Template/Template_Endpoint_Control_W.c **** 	{
 3049               		.loc 4 12 0 discriminator 2
 3050 00c0 5111      		cpse r21,__zero_reg__
 3051 00c2 00C0      		rjmp .L330
 3052 00c4 00C0      		rjmp .L332
 3053               	.L323:
  43:../../LUFA/Drivers/USB/LowLevel/Template/Template_Endpoint_Control_W.c **** 		  return ENDPOINT_RWCSTREAM_DeviceDisconnected;
 3054               		.loc 4 43 0
 3055 00c6 8EB3      		in r24,0x1e
 3056 00c8 8823      		tst r24
 3057 00ca 01F0      		breq .L337
  45:../../LUFA/Drivers/USB/LowLevel/Template/Template_Endpoint_Control_W.c **** 		  return ENDPOINT_RWCSTREAM_BusSuspended;
 3058               		.loc 4 45 0
 3059 00cc 8EB3      		in r24,0x1e
 3060 00ce 8530      		cpi r24,lo8(5)
 3061 00d0 01F4      		brne .L332
 3062 00d2 00C0      		rjmp .L338
 3063               	.L334:
  15:../../LUFA/Drivers/USB/LowLevel/Template/Template_Endpoint_Control_W.c **** 
 3064               		.loc 4 15 0
 3065 00d4 81E0      		ldi r24,lo8(1)
 3066 00d6 00C0      		rjmp .L321
 3067               	.L337:
  21:../../LUFA/Drivers/USB/LowLevel/Template/Template_Endpoint_Control_W.c **** 		else if (USB_DeviceState == DEVICE_STATE_Suspended)
 3068               		.loc 4 21 0
 3069 00d8 82E0      		ldi r24,lo8(2)
 3070 00da 00C0      		rjmp .L321
 3071               	.L338:
  23:../../LUFA/Drivers/USB/LowLevel/Template/Template_Endpoint_Control_W.c **** 		  
 3072               		.loc 4 23 0
 3073 00dc 83E0      		ldi r24,lo8(3)
 3074               	.L321:
 3075               	/* epilogue start */
 3076               		.loc 4 50 0
 3077 00de 0F90      		pop __tmp_reg__
 3078 00e0 DF91      		pop r29
 3079 00e2 CF91      		pop r28
 3080 00e4 1F91      		pop r17
 3081 00e6 0F91      		pop r16
 3082 00e8 FF90      		pop r15
 3083 00ea EF90      		pop r14
 3084 00ec 0895      		ret
 3085               		.cfi_endproc
 3086               	.LFE85:
 3088               		.section	.text.Endpoint_Read_Control_Stream_LE,"ax",@progbits
 3089               	.global	Endpoint_Read_Control_Stream_LE
 3091               	Endpoint_Read_Control_Stream_LE:
 3092               	.LFB86:
 3093               		.file 5 "../../LUFA/Drivers/USB/LowLevel/Template/Template_Endpoint_Control_R.c"
   1:../../LUFA/Drivers/USB/LowLevel/Template/Template_Endpoint_Control_R.c **** uint8_t TEMPLATE_FUNC_NAME (void* Buffer,
   2:../../LUFA/Drivers/USB/LowLevel/Template/Template_Endpoint_Control_R.c ****                             uint16_t Length)
   3:../../LUFA/Drivers/USB/LowLevel/Template/Template_Endpoint_Control_R.c **** {
 3094               		.loc 5 3 0
 3095               		.cfi_startproc
 3096               	.LVL277:
 3097               	/* prologue: function */
 3098               	/* frame size = 0 */
 3099               	/* stack size = 0 */
 3100               	.L__stack_usage = 0
   4:../../LUFA/Drivers/USB/LowLevel/Template/Template_Endpoint_Control_R.c **** 	uint8_t* DataStream = ((uint8_t*)Buffer + TEMPLATE_BUFFER_OFFSET(Length));
   5:../../LUFA/Drivers/USB/LowLevel/Template/Template_Endpoint_Control_R.c **** 	
   6:../../LUFA/Drivers/USB/LowLevel/Template/Template_Endpoint_Control_R.c **** 	if (!(Length))
 3101               		.loc 5 6 0
 3102 0000 6115      		cp r22,__zero_reg__
 3103 0002 7105      		cpc r23,__zero_reg__
 3104 0004 01F4      		brne .L348
 3105               	.LVL278:
 3106               	.L353:
 3107               	.LBB466:
 3108               	.LBB467:
 469:../../LUFA/Drivers/USB/LowLevel/Endpoint.h **** 				#else
 3109               		.loc 2 469 0
 3110 0006 2091 E800 		lds r18,232
 3111 000a 2B77      		andi r18,lo8(123)
 3112 000c 2093 E800 		sts 232,r18
 3113               	.L348:
 3114               	.LVL279:
 3115               	.LBE467:
 3116               	.LBE466:
   7:../../LUFA/Drivers/USB/LowLevel/Template/Template_Endpoint_Control_R.c **** 	  Endpoint_ClearOUT();
   8:../../LUFA/Drivers/USB/LowLevel/Template/Template_Endpoint_Control_R.c **** 	
   9:../../LUFA/Drivers/USB/LowLevel/Template/Template_Endpoint_Control_R.c **** 	while (Length)
 3117               		.loc 5 9 0 discriminator 1
 3118 0010 6115      		cp r22,__zero_reg__
 3119 0012 7105      		cpc r23,__zero_reg__
 3120 0014 01F0      		breq .L356
 3121               	.LVL280:
 3122               	.L351:
 3123               	.LBB468:
 3124               	.LBB469:
 429:../../LUFA/Drivers/USB/LowLevel/Endpoint.h **** 			}
 3125               		.loc 2 429 0
 3126 0016 2091 E800 		lds r18,232
 3127               	.LBE469:
 3128               	.LBE468:
  10:../../LUFA/Drivers/USB/LowLevel/Template/Template_Endpoint_Control_R.c **** 	{
  11:../../LUFA/Drivers/USB/LowLevel/Template/Template_Endpoint_Control_R.c **** 		if (Endpoint_IsSETUPReceived())
 3129               		.loc 5 11 0
 3130 001a 23FD      		sbrc r18,3
 3131 001c 00C0      		rjmp .L357
  12:../../LUFA/Drivers/USB/LowLevel/Template/Template_Endpoint_Control_R.c **** 		  return ENDPOINT_RWCSTREAM_HostAborted;
  13:../../LUFA/Drivers/USB/LowLevel/Template/Template_Endpoint_Control_R.c **** 
  14:../../LUFA/Drivers/USB/LowLevel/Template/Template_Endpoint_Control_R.c **** 		if (USB_DeviceState == DEVICE_STATE_Unattached)
 3132               		.loc 5 14 0
 3133 001e 2EB3      		in r18,0x1e
 3134 0020 2223      		tst r18
 3135 0022 01F0      		breq .L361
  15:../../LUFA/Drivers/USB/LowLevel/Template/Template_Endpoint_Control_R.c **** 		  return ENDPOINT_RWCSTREAM_DeviceDisconnected;
  16:../../LUFA/Drivers/USB/LowLevel/Template/Template_Endpoint_Control_R.c **** 		else if (USB_DeviceState == DEVICE_STATE_Suspended)
 3136               		.loc 5 16 0
 3137 0024 2EB3      		in r18,0x1e
 3138 0026 2530      		cpi r18,lo8(5)
 3139 0028 01F0      		breq .L362
 3140               	.LBB470:
 3141               	.LBB471:
 417:../../LUFA/Drivers/USB/LowLevel/Endpoint.h **** 			}
 3142               		.loc 2 417 0
 3143 002a 2091 E800 		lds r18,232
 3144               	.LBE471:
 3145               	.LBE470:
  17:../../LUFA/Drivers/USB/LowLevel/Template/Template_Endpoint_Control_R.c **** 		  return ENDPOINT_RWCSTREAM_BusSuspended;
  18:../../LUFA/Drivers/USB/LowLevel/Template/Template_Endpoint_Control_R.c **** 		  
  19:../../LUFA/Drivers/USB/LowLevel/Template/Template_Endpoint_Control_R.c **** 		if (Endpoint_IsOUTReceived())
 3146               		.loc 5 19 0
 3147 002e 22FF      		sbrs r18,2
 3148 0030 00C0      		rjmp .L351
 3149 0032 FC01      		movw r30,r24
 3150               	.LVL281:
 3151               	.L352:
 3152               	.LBB472:
 3153               	.LBB473:
 266:../../LUFA/Drivers/USB/LowLevel/Endpoint.h **** 				#endif
 3154               		.loc 2 266 0
 3155 0034 8091 F200 		lds r24,242
 3156               	.LBE473:
 3157               	.LBE472:
  20:../../LUFA/Drivers/USB/LowLevel/Template/Template_Endpoint_Control_R.c **** 		{
  21:../../LUFA/Drivers/USB/LowLevel/Template/Template_Endpoint_Control_R.c **** 			while (Length && Endpoint_BytesInEndpoint())
 3158               		.loc 5 21 0
 3159 0038 8823      		tst r24
 3160 003a 01F0      		breq .L366
 3161 003c 9F01      		movw r18,r30
 3162 003e 2F5F      		subi r18,-1
 3163 0040 3F4F      		sbci r19,-1
 3164 0042 C901      		movw r24,r18
 3165               	.LVL282:
 3166               	.LBB474:
 3167               	.LBB475:
 550:../../LUFA/Drivers/USB/LowLevel/Endpoint.h **** 			}
 3168               		.loc 2 550 0
 3169 0044 4091 F100 		lds r20,241
 3170               	.LBE475:
 3171               	.LBE474:
  22:../../LUFA/Drivers/USB/LowLevel/Template/Template_Endpoint_Control_R.c **** 			{
  23:../../LUFA/Drivers/USB/LowLevel/Template/Template_Endpoint_Control_R.c **** 				TEMPLATE_TRANSFER_BYTE(DataStream);
 3172               		.loc 5 23 0
 3173 0048 4083      		st Z,r20
  24:../../LUFA/Drivers/USB/LowLevel/Template/Template_Endpoint_Control_R.c **** 				Length--;
 3174               		.loc 5 24 0
 3175 004a 6150      		subi r22,1
 3176 004c 7109      		sbc r23,__zero_reg__
 3177               	.LVL283:
  21:../../LUFA/Drivers/USB/LowLevel/Template/Template_Endpoint_Control_R.c **** 			{
 3178               		.loc 5 21 0
 3179 004e 6115      		cp r22,__zero_reg__
 3180 0050 7105      		cpc r23,__zero_reg__
 3181 0052 01F0      		breq .L353
 3182 0054 F901      		movw r30,r18
 3183 0056 00C0      		rjmp .L352
 3184               	.LVL284:
 3185               	.L366:
 3186 0058 CF01      		movw r24,r30
 3187 005a 00C0      		rjmp .L353
 3188               	.LVL285:
 3189               	.L367:
  25:../../LUFA/Drivers/USB/LowLevel/Template/Template_Endpoint_Control_R.c **** 			}
  26:../../LUFA/Drivers/USB/LowLevel/Template/Template_Endpoint_Control_R.c **** 			
  27:../../LUFA/Drivers/USB/LowLevel/Template/Template_Endpoint_Control_R.c **** 			Endpoint_ClearOUT();
  28:../../LUFA/Drivers/USB/LowLevel/Template/Template_Endpoint_Control_R.c **** 		}		  
  29:../../LUFA/Drivers/USB/LowLevel/Template/Template_Endpoint_Control_R.c **** 	}
  30:../../LUFA/Drivers/USB/LowLevel/Template/Template_Endpoint_Control_R.c **** 	
  31:../../LUFA/Drivers/USB/LowLevel/Template/Template_Endpoint_Control_R.c **** 	while (!(Endpoint_IsINReady()))
  32:../../LUFA/Drivers/USB/LowLevel/Template/Template_Endpoint_Control_R.c **** 	{
  33:../../LUFA/Drivers/USB/LowLevel/Template/Template_Endpoint_Control_R.c **** 		if (USB_DeviceState == DEVICE_STATE_Unattached)
 3190               		.loc 5 33 0
 3191 005c 8EB3      		in r24,0x1e
 3192 005e 8823      		tst r24
 3193 0060 01F0      		breq .L361
  34:../../LUFA/Drivers/USB/LowLevel/Template/Template_Endpoint_Control_R.c **** 		  return ENDPOINT_RWCSTREAM_DeviceDisconnected;
  35:../../LUFA/Drivers/USB/LowLevel/Template/Template_Endpoint_Control_R.c **** 		else if (USB_DeviceState == DEVICE_STATE_Suspended)
 3194               		.loc 5 35 0
 3195 0062 8EB3      		in r24,0x1e
 3196 0064 8530      		cpi r24,lo8(5)
 3197 0066 01F0      		breq .L362
 3198               	.L356:
 3199               	.LBB476:
 3200               	.LBB477:
 405:../../LUFA/Drivers/USB/LowLevel/Endpoint.h **** 			}
 3201               		.loc 2 405 0
 3202 0068 8091 E800 		lds r24,232
 3203               	.LBE477:
 3204               	.LBE476:
  31:../../LUFA/Drivers/USB/LowLevel/Template/Template_Endpoint_Control_R.c **** 	{
 3205               		.loc 5 31 0
 3206 006c 80FF      		sbrs r24,0
 3207 006e 00C0      		rjmp .L367
 3208 0070 00C0      		rjmp .L360
 3209               	.LVL286:
 3210               	.L357:
  12:../../LUFA/Drivers/USB/LowLevel/Template/Template_Endpoint_Control_R.c **** 
 3211               		.loc 5 12 0
 3212 0072 81E0      		ldi r24,lo8(1)
 3213               	.LVL287:
 3214 0074 0895      		ret
 3215               	.L360:
  36:../../LUFA/Drivers/USB/LowLevel/Template/Template_Endpoint_Control_R.c **** 		  return ENDPOINT_RWCSTREAM_BusSuspended;
  37:../../LUFA/Drivers/USB/LowLevel/Template/Template_Endpoint_Control_R.c **** 	}
  38:../../LUFA/Drivers/USB/LowLevel/Template/Template_Endpoint_Control_R.c **** 	
  39:../../LUFA/Drivers/USB/LowLevel/Template/Template_Endpoint_Control_R.c **** 	return ENDPOINT_RWCSTREAM_NoError;
 3216               		.loc 5 39 0
 3217 0076 80E0      		ldi r24,0
 3218 0078 0895      		ret
 3219               	.L361:
  15:../../LUFA/Drivers/USB/LowLevel/Template/Template_Endpoint_Control_R.c **** 		else if (USB_DeviceState == DEVICE_STATE_Suspended)
 3220               		.loc 5 15 0
 3221 007a 82E0      		ldi r24,lo8(2)
 3222 007c 0895      		ret
 3223               	.L362:
  17:../../LUFA/Drivers/USB/LowLevel/Template/Template_Endpoint_Control_R.c **** 		  
 3224               		.loc 5 17 0
 3225 007e 83E0      		ldi r24,lo8(3)
  40:../../LUFA/Drivers/USB/LowLevel/Template/Template_Endpoint_Control_R.c **** }
 3226               		.loc 5 40 0
 3227 0080 0895      		ret
 3228               		.cfi_endproc
 3229               	.LFE86:
 3231               		.section	.text.Endpoint_Read_Control_EStream_LE,"ax",@progbits
 3232               	.global	Endpoint_Read_Control_EStream_LE
 3234               	Endpoint_Read_Control_EStream_LE:
 3235               	.LFB87:
   3:../../LUFA/Drivers/USB/LowLevel/Template/Template_Endpoint_Control_R.c **** 	uint8_t* DataStream = ((uint8_t*)Buffer + TEMPLATE_BUFFER_OFFSET(Length));
 3236               		.loc 5 3 0
 3237               		.cfi_startproc
 3238               	.LVL288:
 3239 0000 0F93      		push r16
 3240               	.LCFI94:
 3241               		.cfi_def_cfa_offset 3
 3242               		.cfi_offset 16, -2
 3243 0002 1F93      		push r17
 3244               	.LCFI95:
 3245               		.cfi_def_cfa_offset 4
 3246               		.cfi_offset 17, -3
 3247 0004 CF93      		push r28
 3248               	.LCFI96:
 3249               		.cfi_def_cfa_offset 5
 3250               		.cfi_offset 28, -4
 3251 0006 DF93      		push r29
 3252               	.LCFI97:
 3253               		.cfi_def_cfa_offset 6
 3254               		.cfi_offset 29, -5
 3255               	/* prologue: function */
 3256               	/* frame size = 0 */
 3257               	/* stack size = 4 */
 3258               	.L__stack_usage = 4
 3259 0008 EC01      		movw r28,r24
 3260 000a 8B01      		movw r16,r22
 3261               	.LVL289:
   6:../../LUFA/Drivers/USB/LowLevel/Template/Template_Endpoint_Control_R.c **** 	  Endpoint_ClearOUT();
 3262               		.loc 5 6 0
 3263 000c 6115      		cp r22,__zero_reg__
 3264 000e 7105      		cpc r23,__zero_reg__
 3265 0010 01F4      		brne .L370
 3266               	.LVL290:
 3267               	.L375:
 3268               	.LBB478:
 3269               	.LBB479:
 469:../../LUFA/Drivers/USB/LowLevel/Endpoint.h **** 				#else
 3270               		.loc 2 469 0
 3271 0012 8091 E800 		lds r24,232
 3272 0016 8B77      		andi r24,lo8(123)
 3273 0018 8093 E800 		sts 232,r24
 3274               	.L370:
 3275               	.LBE479:
 3276               	.LBE478:
   9:../../LUFA/Drivers/USB/LowLevel/Template/Template_Endpoint_Control_R.c **** 	{
 3277               		.loc 5 9 0 discriminator 1
 3278 001c 0115      		cp r16,__zero_reg__
 3279 001e 1105      		cpc r17,__zero_reg__
 3280 0020 01F0      		breq .L378
 3281               	.L373:
 3282               	.LBB480:
 3283               	.LBB481:
 429:../../LUFA/Drivers/USB/LowLevel/Endpoint.h **** 			}
 3284               		.loc 2 429 0
 3285 0022 8091 E800 		lds r24,232
 3286               	.LBE481:
 3287               	.LBE480:
  11:../../LUFA/Drivers/USB/LowLevel/Template/Template_Endpoint_Control_R.c **** 		  return ENDPOINT_RWCSTREAM_HostAborted;
 3288               		.loc 5 11 0
 3289 0026 83FD      		sbrc r24,3
 3290 0028 00C0      		rjmp .L379
  14:../../LUFA/Drivers/USB/LowLevel/Template/Template_Endpoint_Control_R.c **** 		  return ENDPOINT_RWCSTREAM_DeviceDisconnected;
 3291               		.loc 5 14 0
 3292 002a 8EB3      		in r24,0x1e
 3293 002c 8823      		tst r24
 3294 002e 01F0      		breq .L383
  16:../../LUFA/Drivers/USB/LowLevel/Template/Template_Endpoint_Control_R.c **** 		  return ENDPOINT_RWCSTREAM_BusSuspended;
 3295               		.loc 5 16 0
 3296 0030 8EB3      		in r24,0x1e
 3297 0032 8530      		cpi r24,lo8(5)
 3298 0034 01F0      		breq .L384
 3299               	.LBB482:
 3300               	.LBB483:
 417:../../LUFA/Drivers/USB/LowLevel/Endpoint.h **** 			}
 3301               		.loc 2 417 0
 3302 0036 8091 E800 		lds r24,232
 3303               	.LBE483:
 3304               	.LBE482:
  19:../../LUFA/Drivers/USB/LowLevel/Template/Template_Endpoint_Control_R.c **** 		{
 3305               		.loc 5 19 0
 3306 003a 82FF      		sbrs r24,2
 3307 003c 00C0      		rjmp .L373
 3308               	.L388:
  23:../../LUFA/Drivers/USB/LowLevel/Template/Template_Endpoint_Control_R.c **** 				Length--;
 3309               		.loc 5 23 0
 3310 003e CE01      		movw r24,r28
 3311               	.LVL291:
 3312               	.LBB484:
 3313               	.LBB485:
 266:../../LUFA/Drivers/USB/LowLevel/Endpoint.h **** 				#endif
 3314               		.loc 2 266 0
 3315 0040 2091 F200 		lds r18,242
 3316               	.LBE485:
 3317               	.LBE484:
  21:../../LUFA/Drivers/USB/LowLevel/Template/Template_Endpoint_Control_R.c **** 			{
 3318               		.loc 5 21 0
 3319 0044 2223      		tst r18
 3320 0046 01F0      		breq .L375
 3321               	.LBB486:
 3322               	.LBB487:
 550:../../LUFA/Drivers/USB/LowLevel/Endpoint.h **** 			}
 3323               		.loc 2 550 0
 3324 0048 6091 F100 		lds r22,241
 3325               	.LBE487:
 3326               	.LBE486:
  23:../../LUFA/Drivers/USB/LowLevel/Template/Template_Endpoint_Control_R.c **** 				Length--;
 3327               		.loc 5 23 0
 3328 004c 2196      		adiw r28,1
 3329               	.LVL292:
 3330 004e 0E94 0000 		call __eeupd_byte_m8u2
 3331               	.LVL293:
  24:../../LUFA/Drivers/USB/LowLevel/Template/Template_Endpoint_Control_R.c **** 			}
 3332               		.loc 5 24 0
 3333 0052 0150      		subi r16,1
 3334 0054 1109      		sbc r17,__zero_reg__
 3335               	.LVL294:
  21:../../LUFA/Drivers/USB/LowLevel/Template/Template_Endpoint_Control_R.c **** 			{
 3336               		.loc 5 21 0
 3337 0056 0115      		cp r16,__zero_reg__
 3338 0058 1105      		cpc r17,__zero_reg__
 3339 005a 01F4      		brne .L388
 3340 005c 00C0      		rjmp .L375
 3341               	.L389:
  33:../../LUFA/Drivers/USB/LowLevel/Template/Template_Endpoint_Control_R.c **** 		  return ENDPOINT_RWCSTREAM_DeviceDisconnected;
 3342               		.loc 5 33 0
 3343 005e 8EB3      		in r24,0x1e
 3344 0060 8823      		tst r24
 3345 0062 01F0      		breq .L383
  35:../../LUFA/Drivers/USB/LowLevel/Template/Template_Endpoint_Control_R.c **** 		  return ENDPOINT_RWCSTREAM_BusSuspended;
 3346               		.loc 5 35 0
 3347 0064 8EB3      		in r24,0x1e
 3348 0066 8530      		cpi r24,lo8(5)
 3349 0068 01F0      		breq .L384
 3350               	.L378:
 3351               	.LBB488:
 3352               	.LBB489:
 405:../../LUFA/Drivers/USB/LowLevel/Endpoint.h **** 			}
 3353               		.loc 2 405 0
 3354 006a 8091 E800 		lds r24,232
 3355               	.LBE489:
 3356               	.LBE488:
  31:../../LUFA/Drivers/USB/LowLevel/Template/Template_Endpoint_Control_R.c **** 	{
 3357               		.loc 5 31 0
 3358 006e 80FF      		sbrs r24,0
 3359 0070 00C0      		rjmp .L389
 3360 0072 00C0      		rjmp .L382
 3361               	.L379:
  12:../../LUFA/Drivers/USB/LowLevel/Template/Template_Endpoint_Control_R.c **** 
 3362               		.loc 5 12 0
 3363 0074 81E0      		ldi r24,lo8(1)
 3364 0076 00C0      		rjmp .L371
 3365               	.L382:
  39:../../LUFA/Drivers/USB/LowLevel/Template/Template_Endpoint_Control_R.c **** }
 3366               		.loc 5 39 0
 3367 0078 80E0      		ldi r24,0
 3368 007a 00C0      		rjmp .L371
 3369               	.L383:
  15:../../LUFA/Drivers/USB/LowLevel/Template/Template_Endpoint_Control_R.c **** 		else if (USB_DeviceState == DEVICE_STATE_Suspended)
 3370               		.loc 5 15 0
 3371 007c 82E0      		ldi r24,lo8(2)
 3372 007e 00C0      		rjmp .L371
 3373               	.L384:
  17:../../LUFA/Drivers/USB/LowLevel/Template/Template_Endpoint_Control_R.c **** 		  
 3374               		.loc 5 17 0
 3375 0080 83E0      		ldi r24,lo8(3)
 3376               	.L371:
 3377               	/* epilogue start */
 3378               		.loc 5 40 0
 3379 0082 DF91      		pop r29
 3380 0084 CF91      		pop r28
 3381               	.LVL295:
 3382 0086 1F91      		pop r17
 3383 0088 0F91      		pop r16
 3384               	.LVL296:
 3385 008a 0895      		ret
 3386               		.cfi_endproc
 3387               	.LFE87:
 3389               		.section	.text.Endpoint_Read_Control_Stream_BE,"ax",@progbits
 3390               	.global	Endpoint_Read_Control_Stream_BE
 3392               	Endpoint_Read_Control_Stream_BE:
 3393               	.LFB88:
   3:../../LUFA/Drivers/USB/LowLevel/Template/Template_Endpoint_Control_R.c **** 	uint8_t* DataStream = ((uint8_t*)Buffer + TEMPLATE_BUFFER_OFFSET(Length));
 3394               		.loc 5 3 0
 3395               		.cfi_startproc
 3396               	.LVL297:
 3397               	/* prologue: function */
 3398               	/* frame size = 0 */
 3399               	/* stack size = 0 */
 3400               	.L__stack_usage = 0
   4:../../LUFA/Drivers/USB/LowLevel/Template/Template_Endpoint_Control_R.c **** 	
 3401               		.loc 5 4 0
 3402 0000 9B01      		movw r18,r22
 3403 0002 2150      		subi r18,1
 3404 0004 3109      		sbc r19,__zero_reg__
 3405 0006 280F      		add r18,r24
 3406 0008 391F      		adc r19,r25
 3407               	.LVL298:
   6:../../LUFA/Drivers/USB/LowLevel/Template/Template_Endpoint_Control_R.c **** 	  Endpoint_ClearOUT();
 3408               		.loc 5 6 0
 3409 000a 6115      		cp r22,__zero_reg__
 3410 000c 7105      		cpc r23,__zero_reg__
 3411 000e 01F4      		brne .L392
 3412               	.LVL299:
 3413               	.L397:
 3414               	.LBB490:
 3415               	.LBB491:
 469:../../LUFA/Drivers/USB/LowLevel/Endpoint.h **** 				#else
 3416               		.loc 2 469 0
 3417 0010 8091 E800 		lds r24,232
 3418 0014 8B77      		andi r24,lo8(123)
 3419 0016 8093 E800 		sts 232,r24
 3420               	.L392:
 3421               	.LBE491:
 3422               	.LBE490:
   9:../../LUFA/Drivers/USB/LowLevel/Template/Template_Endpoint_Control_R.c **** 	{
 3423               		.loc 5 9 0 discriminator 1
 3424 001a 6115      		cp r22,__zero_reg__
 3425 001c 7105      		cpc r23,__zero_reg__
 3426 001e 01F0      		breq .L400
 3427               	.L395:
 3428               	.LBB492:
 3429               	.LBB493:
 429:../../LUFA/Drivers/USB/LowLevel/Endpoint.h **** 			}
 3430               		.loc 2 429 0
 3431 0020 8091 E800 		lds r24,232
 3432               	.LBE493:
 3433               	.LBE492:
  11:../../LUFA/Drivers/USB/LowLevel/Template/Template_Endpoint_Control_R.c **** 		  return ENDPOINT_RWCSTREAM_HostAborted;
 3434               		.loc 5 11 0
 3435 0024 83FD      		sbrc r24,3
 3436 0026 00C0      		rjmp .L401
  14:../../LUFA/Drivers/USB/LowLevel/Template/Template_Endpoint_Control_R.c **** 		  return ENDPOINT_RWCSTREAM_DeviceDisconnected;
 3437               		.loc 5 14 0
 3438 0028 8EB3      		in r24,0x1e
 3439 002a 8823      		tst r24
 3440 002c 01F0      		breq .L405
  16:../../LUFA/Drivers/USB/LowLevel/Template/Template_Endpoint_Control_R.c **** 		  return ENDPOINT_RWCSTREAM_BusSuspended;
 3441               		.loc 5 16 0
 3442 002e 8EB3      		in r24,0x1e
 3443 0030 8530      		cpi r24,lo8(5)
 3444 0032 01F0      		breq .L406
 3445               	.LBB494:
 3446               	.LBB495:
 417:../../LUFA/Drivers/USB/LowLevel/Endpoint.h **** 			}
 3447               		.loc 2 417 0
 3448 0034 8091 E800 		lds r24,232
 3449               	.LBE495:
 3450               	.LBE494:
  19:../../LUFA/Drivers/USB/LowLevel/Template/Template_Endpoint_Control_R.c **** 		{
 3451               		.loc 5 19 0
 3452 0038 82FF      		sbrs r24,2
 3453 003a 00C0      		rjmp .L395
 3454 003c F901      		movw r30,r18
 3455               	.L396:
 3456               	.LBB496:
 3457               	.LBB497:
 266:../../LUFA/Drivers/USB/LowLevel/Endpoint.h **** 				#endif
 3458               		.loc 2 266 0
 3459 003e 8091 F200 		lds r24,242
 3460               	.LBE497:
 3461               	.LBE496:
  21:../../LUFA/Drivers/USB/LowLevel/Template/Template_Endpoint_Control_R.c **** 			{
 3462               		.loc 5 21 0
 3463 0042 8823      		tst r24
 3464 0044 01F0      		breq .L397
 3465 0046 2150      		subi r18,1
 3466 0048 3109      		sbc r19,__zero_reg__
 3467               	.LVL300:
 3468               	.LBB498:
 3469               	.LBB499:
 550:../../LUFA/Drivers/USB/LowLevel/Endpoint.h **** 			}
 3470               		.loc 2 550 0
 3471 004a 8091 F100 		lds r24,241
 3472               	.LBE499:
 3473               	.LBE498:
  23:../../LUFA/Drivers/USB/LowLevel/Template/Template_Endpoint_Control_R.c **** 				Length--;
 3474               		.loc 5 23 0
 3475 004e 8083      		st Z,r24
  24:../../LUFA/Drivers/USB/LowLevel/Template/Template_Endpoint_Control_R.c **** 			}
 3476               		.loc 5 24 0
 3477 0050 6150      		subi r22,1
 3478 0052 7109      		sbc r23,__zero_reg__
 3479               	.LVL301:
 3480 0054 F901      		movw r30,r18
  21:../../LUFA/Drivers/USB/LowLevel/Template/Template_Endpoint_Control_R.c **** 			{
 3481               		.loc 5 21 0
 3482 0056 6115      		cp r22,__zero_reg__
 3483 0058 7105      		cpc r23,__zero_reg__
 3484 005a 01F4      		brne .L396
 3485 005c 00C0      		rjmp .L397
 3486               	.L410:
  33:../../LUFA/Drivers/USB/LowLevel/Template/Template_Endpoint_Control_R.c **** 		  return ENDPOINT_RWCSTREAM_DeviceDisconnected;
 3487               		.loc 5 33 0
 3488 005e 8EB3      		in r24,0x1e
 3489 0060 8823      		tst r24
 3490 0062 01F0      		breq .L405
  35:../../LUFA/Drivers/USB/LowLevel/Template/Template_Endpoint_Control_R.c **** 		  return ENDPOINT_RWCSTREAM_BusSuspended;
 3491               		.loc 5 35 0
 3492 0064 8EB3      		in r24,0x1e
 3493 0066 8530      		cpi r24,lo8(5)
 3494 0068 01F0      		breq .L406
 3495               	.L400:
 3496               	.LBB500:
 3497               	.LBB501:
 405:../../LUFA/Drivers/USB/LowLevel/Endpoint.h **** 			}
 3498               		.loc 2 405 0
 3499 006a 8091 E800 		lds r24,232
 3500               	.LBE501:
 3501               	.LBE500:
  31:../../LUFA/Drivers/USB/LowLevel/Template/Template_Endpoint_Control_R.c **** 	{
 3502               		.loc 5 31 0
 3503 006e 80FF      		sbrs r24,0
 3504 0070 00C0      		rjmp .L410
 3505 0072 00C0      		rjmp .L404
 3506               	.L401:
  12:../../LUFA/Drivers/USB/LowLevel/Template/Template_Endpoint_Control_R.c **** 
 3507               		.loc 5 12 0
 3508 0074 81E0      		ldi r24,lo8(1)
 3509 0076 0895      		ret
 3510               	.L404:
  39:../../LUFA/Drivers/USB/LowLevel/Template/Template_Endpoint_Control_R.c **** }
 3511               		.loc 5 39 0
 3512 0078 80E0      		ldi r24,0
 3513 007a 0895      		ret
 3514               	.L405:
  15:../../LUFA/Drivers/USB/LowLevel/Template/Template_Endpoint_Control_R.c **** 		else if (USB_DeviceState == DEVICE_STATE_Suspended)
 3515               		.loc 5 15 0
 3516 007c 82E0      		ldi r24,lo8(2)
 3517 007e 0895      		ret
 3518               	.L406:
  17:../../LUFA/Drivers/USB/LowLevel/Template/Template_Endpoint_Control_R.c **** 		  
 3519               		.loc 5 17 0
 3520 0080 83E0      		ldi r24,lo8(3)
 3521               		.loc 5 40 0
 3522 0082 0895      		ret
 3523               		.cfi_endproc
 3524               	.LFE88:
 3526               		.section	.text.Endpoint_Read_Control_EStream_BE,"ax",@progbits
 3527               	.global	Endpoint_Read_Control_EStream_BE
 3529               	Endpoint_Read_Control_EStream_BE:
 3530               	.LFB89:
   3:../../LUFA/Drivers/USB/LowLevel/Template/Template_Endpoint_Control_R.c **** 	uint8_t* DataStream = ((uint8_t*)Buffer + TEMPLATE_BUFFER_OFFSET(Length));
 3531               		.loc 5 3 0
 3532               		.cfi_startproc
 3533               	.LVL302:
 3534 0000 0F93      		push r16
 3535               	.LCFI98:
 3536               		.cfi_def_cfa_offset 3
 3537               		.cfi_offset 16, -2
 3538 0002 1F93      		push r17
 3539               	.LCFI99:
 3540               		.cfi_def_cfa_offset 4
 3541               		.cfi_offset 17, -3
 3542 0004 CF93      		push r28
 3543               	.LCFI100:
 3544               		.cfi_def_cfa_offset 5
 3545               		.cfi_offset 28, -4
 3546 0006 DF93      		push r29
 3547               	.LCFI101:
 3548               		.cfi_def_cfa_offset 6
 3549               		.cfi_offset 29, -5
 3550               	/* prologue: function */
 3551               	/* frame size = 0 */
 3552               	/* stack size = 4 */
 3553               	.L__stack_usage = 4
 3554 0008 8B01      		movw r16,r22
   4:../../LUFA/Drivers/USB/LowLevel/Template/Template_Endpoint_Control_R.c **** 	
 3555               		.loc 5 4 0
 3556 000a EB01      		movw r28,r22
 3557 000c 2197      		sbiw r28,1
 3558 000e C80F      		add r28,r24
 3559 0010 D91F      		adc r29,r25
 3560               	.LVL303:
   6:../../LUFA/Drivers/USB/LowLevel/Template/Template_Endpoint_Control_R.c **** 	  Endpoint_ClearOUT();
 3561               		.loc 5 6 0
 3562 0012 6115      		cp r22,__zero_reg__
 3563 0014 7105      		cpc r23,__zero_reg__
 3564 0016 01F4      		brne .L413
 3565               	.LVL304:
 3566               	.L418:
 3567               	.LBB502:
 3568               	.LBB503:
 469:../../LUFA/Drivers/USB/LowLevel/Endpoint.h **** 				#else
 3569               		.loc 2 469 0
 3570 0018 8091 E800 		lds r24,232
 3571 001c 8B77      		andi r24,lo8(123)
 3572 001e 8093 E800 		sts 232,r24
 3573               	.L413:
 3574               	.LBE503:
 3575               	.LBE502:
   9:../../LUFA/Drivers/USB/LowLevel/Template/Template_Endpoint_Control_R.c **** 	{
 3576               		.loc 5 9 0 discriminator 1
 3577 0022 0115      		cp r16,__zero_reg__
 3578 0024 1105      		cpc r17,__zero_reg__
 3579 0026 01F0      		breq .L421
 3580               	.L416:
 3581               	.LBB504:
 3582               	.LBB505:
 429:../../LUFA/Drivers/USB/LowLevel/Endpoint.h **** 			}
 3583               		.loc 2 429 0
 3584 0028 8091 E800 		lds r24,232
 3585               	.LBE505:
 3586               	.LBE504:
  11:../../LUFA/Drivers/USB/LowLevel/Template/Template_Endpoint_Control_R.c **** 		  return ENDPOINT_RWCSTREAM_HostAborted;
 3587               		.loc 5 11 0
 3588 002c 83FD      		sbrc r24,3
 3589 002e 00C0      		rjmp .L422
  14:../../LUFA/Drivers/USB/LowLevel/Template/Template_Endpoint_Control_R.c **** 		  return ENDPOINT_RWCSTREAM_DeviceDisconnected;
 3590               		.loc 5 14 0
 3591 0030 8EB3      		in r24,0x1e
 3592 0032 8823      		tst r24
 3593 0034 01F0      		breq .L426
  16:../../LUFA/Drivers/USB/LowLevel/Template/Template_Endpoint_Control_R.c **** 		  return ENDPOINT_RWCSTREAM_BusSuspended;
 3594               		.loc 5 16 0
 3595 0036 8EB3      		in r24,0x1e
 3596 0038 8530      		cpi r24,lo8(5)
 3597 003a 01F0      		breq .L427
 3598               	.LBB506:
 3599               	.LBB507:
 417:../../LUFA/Drivers/USB/LowLevel/Endpoint.h **** 			}
 3600               		.loc 2 417 0
 3601 003c 8091 E800 		lds r24,232
 3602               	.LBE507:
 3603               	.LBE506:
  19:../../LUFA/Drivers/USB/LowLevel/Template/Template_Endpoint_Control_R.c **** 		{
 3604               		.loc 5 19 0
 3605 0040 82FF      		sbrs r24,2
 3606 0042 00C0      		rjmp .L416
 3607               	.L431:
  23:../../LUFA/Drivers/USB/LowLevel/Template/Template_Endpoint_Control_R.c **** 				Length--;
 3608               		.loc 5 23 0
 3609 0044 CE01      		movw r24,r28
 3610               	.LVL305:
 3611               	.LBB508:
 3612               	.LBB509:
 266:../../LUFA/Drivers/USB/LowLevel/Endpoint.h **** 				#endif
 3613               		.loc 2 266 0
 3614 0046 2091 F200 		lds r18,242
 3615               	.LBE509:
 3616               	.LBE508:
  21:../../LUFA/Drivers/USB/LowLevel/Template/Template_Endpoint_Control_R.c **** 			{
 3617               		.loc 5 21 0
 3618 004a 2223      		tst r18
 3619 004c 01F0      		breq .L418
 3620               	.LBB510:
 3621               	.LBB511:
 550:../../LUFA/Drivers/USB/LowLevel/Endpoint.h **** 			}
 3622               		.loc 2 550 0
 3623 004e 6091 F100 		lds r22,241
 3624               	.LBE511:
 3625               	.LBE510:
  23:../../LUFA/Drivers/USB/LowLevel/Template/Template_Endpoint_Control_R.c **** 				Length--;
 3626               		.loc 5 23 0
 3627 0052 2197      		sbiw r28,1
 3628               	.LVL306:
 3629 0054 0E94 0000 		call __eeupd_byte_m8u2
 3630               	.LVL307:
  24:../../LUFA/Drivers/USB/LowLevel/Template/Template_Endpoint_Control_R.c **** 			}
 3631               		.loc 5 24 0
 3632 0058 0150      		subi r16,1
 3633 005a 1109      		sbc r17,__zero_reg__
 3634               	.LVL308:
  21:../../LUFA/Drivers/USB/LowLevel/Template/Template_Endpoint_Control_R.c **** 			{
 3635               		.loc 5 21 0
 3636 005c 0115      		cp r16,__zero_reg__
 3637 005e 1105      		cpc r17,__zero_reg__
 3638 0060 01F4      		brne .L431
 3639 0062 00C0      		rjmp .L418
 3640               	.L432:
  33:../../LUFA/Drivers/USB/LowLevel/Template/Template_Endpoint_Control_R.c **** 		  return ENDPOINT_RWCSTREAM_DeviceDisconnected;
 3641               		.loc 5 33 0
 3642 0064 8EB3      		in r24,0x1e
 3643 0066 8823      		tst r24
 3644 0068 01F0      		breq .L426
  35:../../LUFA/Drivers/USB/LowLevel/Template/Template_Endpoint_Control_R.c **** 		  return ENDPOINT_RWCSTREAM_BusSuspended;
 3645               		.loc 5 35 0
 3646 006a 8EB3      		in r24,0x1e
 3647 006c 8530      		cpi r24,lo8(5)
 3648 006e 01F0      		breq .L427
 3649               	.L421:
 3650               	.LBB512:
 3651               	.LBB513:
 405:../../LUFA/Drivers/USB/LowLevel/Endpoint.h **** 			}
 3652               		.loc 2 405 0
 3653 0070 8091 E800 		lds r24,232
 3654               	.LBE513:
 3655               	.LBE512:
  31:../../LUFA/Drivers/USB/LowLevel/Template/Template_Endpoint_Control_R.c **** 	{
 3656               		.loc 5 31 0
 3657 0074 80FF      		sbrs r24,0
 3658 0076 00C0      		rjmp .L432
 3659 0078 00C0      		rjmp .L425
 3660               	.L422:
  12:../../LUFA/Drivers/USB/LowLevel/Template/Template_Endpoint_Control_R.c **** 
 3661               		.loc 5 12 0
 3662 007a 81E0      		ldi r24,lo8(1)
 3663 007c 00C0      		rjmp .L414
 3664               	.L425:
  39:../../LUFA/Drivers/USB/LowLevel/Template/Template_Endpoint_Control_R.c **** }
 3665               		.loc 5 39 0
 3666 007e 80E0      		ldi r24,0
 3667 0080 00C0      		rjmp .L414
 3668               	.L426:
  15:../../LUFA/Drivers/USB/LowLevel/Template/Template_Endpoint_Control_R.c **** 		else if (USB_DeviceState == DEVICE_STATE_Suspended)
 3669               		.loc 5 15 0
 3670 0082 82E0      		ldi r24,lo8(2)
 3671 0084 00C0      		rjmp .L414
 3672               	.L427:
  17:../../LUFA/Drivers/USB/LowLevel/Template/Template_Endpoint_Control_R.c **** 		  
 3673               		.loc 5 17 0
 3674 0086 83E0      		ldi r24,lo8(3)
 3675               	.L414:
 3676               	/* epilogue start */
 3677               		.loc 5 40 0
 3678 0088 DF91      		pop r29
 3679 008a CF91      		pop r28
 3680               	.LVL309:
 3681 008c 1F91      		pop r17
 3682 008e 0F91      		pop r16
 3683               	.LVL310:
 3684 0090 0895      		ret
 3685               		.cfi_endproc
 3686               	.LFE89:
 3688               		.text
 3689               	.Letext0:
 3690               		.file 6 "/usr/lib/avr/include/stdint.h"
 3691               		.file 7 "../../LUFA/Drivers/USB/LowLevel/../HighLevel/../LowLevel/../HighLevel/StdRequestType.h"
 3692               		.file 8 "../../LUFA/Drivers/USB/LowLevel/../HighLevel/../LowLevel/Device.h"
 3693               		.file 9 "../../LUFA/Drivers/USB/LowLevel/../HighLevel/StreamCallbacks.h"
 3694               		.file 10 "../../LUFA/Drivers/USB/LowLevel/../HighLevel/USBTask.h"
 3695               		.file 11 "/usr/lib/avr/include/avr/eeprom.h"
DEFINED SYMBOLS
                            *ABS*:00000000 Endpoint.c
     /tmp/ccESgZLH.s:2      *ABS*:0000003e __SP_H__
     /tmp/ccESgZLH.s:3      *ABS*:0000003d __SP_L__
     /tmp/ccESgZLH.s:4      *ABS*:0000003f __SREG__
     /tmp/ccESgZLH.s:5      *ABS*:00000000 __tmp_reg__
     /tmp/ccESgZLH.s:6      *ABS*:00000001 __zero_reg__
     /tmp/ccESgZLH.s:13     .text.Endpoint_BytesToEPSizeMaskDynamic:00000000 Endpoint_BytesToEPSizeMaskDynamic
     /tmp/ccESgZLH.s:60     .text.Endpoint_ConfigureEndpoint_Prv:00000000 Endpoint_ConfigureEndpoint_Prv
     /tmp/ccESgZLH.s:112    .text.Endpoint_ClearEndpoints:00000000 Endpoint_ClearEndpoints
     /tmp/ccESgZLH.s:163    .text.Endpoint_ClearStatusStage:00000000 Endpoint_ClearStatusStage
     /tmp/ccESgZLH.s:233    .text.Endpoint_WaitUntilReady:00000000 Endpoint_WaitUntilReady
     /tmp/ccESgZLH.s:341    .text.Endpoint_Discard_Stream:00000000 Endpoint_Discard_Stream
     /tmp/ccESgZLH.s:440    .text.Endpoint_Write_Stream_LE:00000000 Endpoint_Write_Stream_LE
     /tmp/ccESgZLH.s:562    .text.Endpoint_Write_PStream_LE:00000000 Endpoint_Write_PStream_LE
     /tmp/ccESgZLH.s:695    .text.Endpoint_Write_EStream_LE:00000000 Endpoint_Write_EStream_LE
     /tmp/ccESgZLH.s:830    .text.Endpoint_Write_Stream_BE:00000000 Endpoint_Write_Stream_BE
     /tmp/ccESgZLH.s:976    .text.Endpoint_Write_EStream_BE:00000000 Endpoint_Write_EStream_BE
     /tmp/ccESgZLH.s:1125   .text.Endpoint_Write_PStream_BE:00000000 Endpoint_Write_PStream_BE
     /tmp/ccESgZLH.s:1283   .text.Endpoint_Read_Stream_LE:00000000 Endpoint_Read_Stream_LE
     /tmp/ccESgZLH.s:1402   .text.Endpoint_Read_EStream_LE:00000000 Endpoint_Read_EStream_LE
     /tmp/ccESgZLH.s:1537   .text.Endpoint_Read_Stream_BE:00000000 Endpoint_Read_Stream_BE
     /tmp/ccESgZLH.s:1681   .text.Endpoint_Read_EStream_BE:00000000 Endpoint_Read_EStream_BE
     /tmp/ccESgZLH.s:1830   .text.Endpoint_Write_Control_Stream_LE:00000000 Endpoint_Write_Control_Stream_LE
     /tmp/ccESgZLH.s:2019   .text.Endpoint_Write_Control_PStream_LE:00000000 Endpoint_Write_Control_PStream_LE
     /tmp/ccESgZLH.s:2220   .text.Endpoint_Write_Control_EStream_LE:00000000 Endpoint_Write_Control_EStream_LE
     /tmp/ccESgZLH.s:2455   .text.Endpoint_Write_Control_Stream_BE:00000000 Endpoint_Write_Control_Stream_BE
     /tmp/ccESgZLH.s:2646   .text.Endpoint_Write_Control_PStream_BE:00000000 Endpoint_Write_Control_PStream_BE
     /tmp/ccESgZLH.s:2848   .text.Endpoint_Write_Control_EStream_BE:00000000 Endpoint_Write_Control_EStream_BE
     /tmp/ccESgZLH.s:3091   .text.Endpoint_Read_Control_Stream_LE:00000000 Endpoint_Read_Control_Stream_LE
     /tmp/ccESgZLH.s:3234   .text.Endpoint_Read_Control_EStream_LE:00000000 Endpoint_Read_Control_EStream_LE
     /tmp/ccESgZLH.s:3392   .text.Endpoint_Read_Control_Stream_BE:00000000 Endpoint_Read_Control_Stream_BE
     /tmp/ccESgZLH.s:3529   .text.Endpoint_Read_Control_EStream_BE:00000000 Endpoint_Read_Control_EStream_BE

UNDEFINED SYMBOLS
USB_ControlRequest
__eerd_byte_m8u2
__eeupd_byte_m8u2
